Certificate:
    Data:
        Version: 3 (0x2)
        Serial Number: 268435670 (0x100000d6)
    Signature Algorithm: sha256WithRSAEncryption
        Issuer: C=DE, ST=Hessen, O=privacyidea, CN=CA001
        Validity
            Not Before: Mar  9 08:47:08 2017 GMT
            Not After : Mar  9 08:47:08 2018 GMT
        Subject: OU=realm1, CN=cornelius/emailAddress=user@localhost.localdomain
        Subject Public Key Info:
            Public Key Algorithm: rsaEncryption
                Public-Key: (2048 bit)
                Modulus:
                    00:bc:67:7f:30:45:41:55:fb:9e:22:1f:21:69:2c:
                    d0:dd:ea:e0:46:4b:de:a1:38:0e:b2:bf:38:bd:12:
                    3a:de:2f:db:17:6d:c8:db:e6:a3:4f:cf:19:b9:eb:
                    1e:91:c9:ec:0b:bf:f2:98:b4:3a:33:51:34:13:e6:
                    96:31:56:80:40:51:1e:73:18:7a:2f:d7:8d:20:04:
                    10:9a:2c:fa:95:72:74:80:72:17:c5:16:f8:ca:c0:
                    f5:d0:d5:1d:0b:65:0d:05:87:63:2a:a0:f9:08:7a:
                    03:01:ab:34:d2:d7:8a:ff:24:58:09:f6:e9:f3:36:
                    58:28:f3:78:6f:6e:76:5a:4d:d7:b1:85:a1:0b:66:
                    2c:76:20:ef:0a:4c:57:b3:98:ac:37:fe:96:fe:86:
                    03:fd:05:af:f2:66:91:c5:74:cd:d5:42:7a:89:77:
                    63:fd:99:38:2e:e1:85:87:f0:a6:19:6b:f3:29:89:
                    df:0d:43:8f:3f:86:9d:ea:0a:41:cb:43:86:a4:72:
                    76:c8:e2:57:3a:1e:9a:ae:19:f4:db:ed:c3:cb:a7:
                    8f:20:e5:12:89:1a:db:31:3c:8a:13:f3:bf:2c:aa:
                    e5:64:27:20:5c:76:b5:1a:ca:07:70:f3:24:c1:64:
                    77:86:5c:02:a1:e7:e9:5b:7f:fc:cd:39:ad:f2:0f:
                    3a:a5
                Exponent: 65537 (0x10001)
        X509v3 extensions:
            X509v3 Key Usage: 
                Digital Signature, Key Encipherment
            X509v3 Basic Constraints: 
                CA:FALSE
            Netscape Cert Type: 
                SSL Server
            Netscape Comment: 
                OpenSSL Generated Server Certificate
            X509v3 Subject Key Identifier: 
                07:10:04:7A:EE:CB:B8:3E:A0:41:FF:03:43:3F:2E:22:46:77:96:FE
            X509v3 Authority Key Identifier: 
                keyid:F4:A7:C0:CC:91:46:AF:64:F3:91:F2:27:F8:C8:B2:6F:8A:87:32:73
                DirName:/C=DE/ST=Hessen/O=privacyidea/CN=CA001
                serial:FB:C8:EB:AC:83:CD:12:07

            X509v3 Extended Key Usage: 
                TLS Web Server Authentication
    Signature Algorithm: sha256WithRSAEncryption
         bc:10:69:3f:32:15:5f:14:94:98:dc:ca:d0:ec:64:fe:30:f2:
         04:32:c0:08:17:17:77:58:8d:e4:f2:2d:85:cc:6b:04:c4:8e:
         14:3f:96:33:61:a0:7b:1c:44:fa:60:43:aa:26:69:23:a9:55:
         02:ec:e1:f5:22:df:ed:d7:c7:45:56:ff:70:0d:33:23:e2:2e:
         7e:a3:f2:7c:c9:65:98:66:97:dd:a2:3d:9d:0d:2e:79:31:d9:
         c5:c2:06:75:e4:52:0d:08:d3:09:f8:9c:4f:1e:6e:6c:ec:ca:
         e8:47:02:b5:49:35:00:57:d1:84:a0:ac:53:b9:8c:8b:7e:f4:
         62:b7:e9:9c:34:ae:a2:fd:87:61:74:1f:f1:ee:30:7a:65:38:
         4b:02:85:96:79:bc:b9:2f:76:37:c8:f0:a7:9c:59:e7:a6:25:
         34:e0:37:e4:ad:70:9e:00:fb:d1:3b:18:7f:2c:c3:c1:d6:3f:
         e2:e1:9e:cf:e5:94:c8:3a:2a:25:ed:dc:79:53:1c:aa:42:5f:
         45:b0:ad:37:ef:0f:2c:dd:f1:dd:6b:aa:f9:f5:0f:31:c4:7a:
         d0:04:3c:e3:a8:dd:57:97:0a:30:b1:66:79:fe:4d:ea:34:71:
         90:4e:40:f4:58:27:c0:2e:3d:01:39:53:24:c4:d1:78:21:02:
         7b:e7:c9:b9
-----BEGIN CERTIFICATE-----
MIIEIjCCAwqgAwIBAgIEEAAA1jANBgkqhkiG9w0BAQsFADBEMQswCQYDVQQGEwJE
RTEPMA0GA1UECAwGSGVzc2VuMRQwEgYDVQQKDAtwcml2YWN5aWRlYTEOMAwGA1UE
AwwFQ0EwMDEwHhcNMTcwMzA5MDg0NzA4WhcNMTgwMzA5MDg0NzA4WjBQMQ8wDQYD
VQQLDAZyZWFsbTExEjAQBgNVBAMMCWNvcm5lbGl1czEpMCcGCSqGSIb3DQEJARYa
dXNlckBsb2NhbGhvc3QubG9jYWxkb21haW4wggEiMA0GCSqGSIb3DQEBAQUAA4IB
DwAwggEKAoIBAQC8Z38wRUFV+54iHyFpLNDd6uBGS96hOA6yvzi9EjreL9sXbcjb
5qNPzxm56x6RyewLv/KYtDozUTQT5pYxVoBAUR5zGHov140gBBCaLPqVcnSAchfF
FvjKwPXQ1R0LZQ0Fh2MqoPkIegMBqzTS14r/JFgJ9unzNlgo83hvbnZaTdexhaEL
Zix2IO8KTFezmKw3/pb+hgP9Ba/yZpHFdM3VQnqJd2P9mTgu4YWH8KYZa/Mpid8N
Q48/hp3qCkHLQ4akcnbI4lc6HpquGfTb7cPLp48g5RKJGtsxPIoT878squVkJyBc
drUaygdw8yTBZHeGXAKh5+lbf/zNOa3yDzqlAgMBAAGjggEOMIIBCjALBgNVHQ8E
BAMCBaAwCQYDVR0TBAIwADARBglghkgBhvhCAQEEBAMCBkAwMwYJYIZIAYb4QgEN
BCYWJE9wZW5TU0wgR2VuZXJhdGVkIFNlcnZlciBDZXJ0aWZpY2F0ZTAdBgNVHQ4E
FgQUBxAEeu7LuD6gQf8DQz8uIkZ3lv4wdAYDVR0jBG0wa4AU9KfAzJFGr2TzkfIn
+Miyb4qHMnOhSKRGMEQxCzAJBgNVBAYTAkRFMQ8wDQYDVQQIDAZIZXNzZW4xFDAS
BgNVBAoMC3ByaXZhY3lpZGVhMQ4wDAYDVQQDDAVDQTAwMYIJAPvI66yDzRIHMBMG
A1UdJQQMMAoGCCsGAQUFBwMBMA0GCSqGSIb3DQEBCwUAA4IBAQC8EGk/MhVfFJSY
3MrQ7GT+MPIEMsAIFxd3WI3k8i2FzGsExI4UP5YzYaB7HET6YEOqJmkjqVUC7OH1
It/t18dFVv9wDTMj4i5+o/J8yWWYZpfdoj2dDS55MdnFwgZ15FINCNMJ+JxPHm5s
7MroRwK1STUAV9GEoKxTuYyLfvRit+mcNK6i/YdhdB/x7jB6ZThLAoWWeby5L3Y3
yPCnnFnnpiU04DfkrXCeAPvROxh/LMPB1j/i4Z7P5ZTIOiol7dx5UxyqQl9FsK03
7w8s3fHda6r59Q8xxHrQBDzjqN1XlwowsWZ5/k3qNHGQTkD0WCfALj0BOVMkxNF4
IQJ758m5
-----END CERTIFICATE-----
