Certificate:
    Data:
        Version: 3 (0x2)
        Serial Number: 268435667 (0x100000d3)
    Signature Algorithm: sha256WithRSAEncryption
        Issuer: C=DE, ST=Hessen, O=privacyidea, CN=CA001
        Validity
            Not Before: Mar  9 08:43:47 2017 GMT
            Not After : Mar  9 08:43:47 2018 GMT
        Subject: CN=Steve Test/emailAddress=steve@openssl.org
        Subject Public Key Info:
            Public Key Algorithm: rsaEncryption
                Public-Key: (2048 bit)
                Modulus:
                    00:d2:81:89:20:51:48:0f:73:f4:11:32:24:d5:1f:
                    1c:fd:5c:f5:b6:e6:c5:f0:52:81:dc:d2:af:66:4a:
                    7c:93:31:61:5c:af:d1:6d:06:70:03:60:7c:72:0c:
                    88:dd:49:cd:9e:02:6c:d2:5a:d7:53:0f:f3:da:be:
                    69:64:b5:0f:0c:00:e3:b3:50:47:a3:b3:9b:ba:13:
                    50:d6:58:5a:4b:ab:39:e0:11:ca:0a:27:67:03:78:
                    22:66:6d:92:1e:1b:5c:49:ae:e6:6b:d1:8e:3b:9d:
                    06:d3:c6:ac:4d:53:43:10:ab:e8:96:c1:87:82:97:
                    99:8f:20:d3:99:12:37:31:84:e1:8a:ff:29:03:5f:
                    22:90:3e:7f:9b:e0:20:c1:ad:dc:ae:4c:39:1a:31:
                    96:17:02:8c:b2:d9:b4:0d:20:12:9b:7d:86:54:fd:
                    33:fd:c1:2a:62:46:f8:60:96:cf:6e:01:6f:22:df:
                    13:47:e7:97:ec:05:72:23:a3:62:f8:fa:ef:ac:9c:
                    72:f0:37:cb:2f:37:cf:90:a8:27:51:86:c6:d7:78:
                    08:8f:7e:25:a2:15:70:a2:fb:1c:b6:15:5e:a0:97:
                    8b:81:4c:09:28:8a:27:3b:94:bc:71:db:5b:71:37:
                    9a:2b:16:e0:6f:b5:c9:f5:4b:4f:20:ba:65:cf:af:
                    ad:ad
                Exponent: 65537 (0x10001)
        X509v3 extensions:
            X509v3 Key Usage: 
                Digital Signature, Key Encipherment
            X509v3 Basic Constraints: 
                CA:FALSE
            Netscape Cert Type: 
                SSL Server
            Netscape Comment: 
                OpenSSL Generated Server Certificate
            X509v3 Subject Key Identifier: 
                E5:25:6D:3E:AF:0D:DD:3F:4C:F2:45:19:39:D5:14:DB:7E:9C:C0:AD
            X509v3 Authority Key Identifier: 
                keyid:F4:A7:C0:CC:91:46:AF:64:F3:91:F2:27:F8:C8:B2:6F:8A:87:32:73
                DirName:/C=DE/ST=Hessen/O=privacyidea/CN=CA001
                serial:FB:C8:EB:AC:83:CD:12:07

            X509v3 Extended Key Usage: 
                TLS Web Server Authentication
    Signature Algorithm: sha256WithRSAEncryption
         19:58:9b:55:a4:4b:06:16:d0:8e:65:0e:66:08:60:95:da:fd:
         aa:a8:06:1e:4c:30:34:7b:d6:43:23:c2:b4:e3:a0:f8:a5:2e:
         0b:08:7a:f7:98:ae:21:ff:49:a8:ca:bc:4b:b1:2b:48:81:97:
         d8:fb:02:a1:23:c2:cb:5c:e9:0b:30:d4:d7:74:9c:fe:f9:cc:
         27:b8:cf:ca:c9:ef:70:c3:30:aa:5d:f2:4c:06:4f:f5:b4:45:
         d7:f9:29:62:9b:ca:57:4b:cd:cd:59:4c:ad:04:88:ad:a9:ba:
         b8:5f:33:6d:15:e1:3a:7d:94:6f:45:97:ff:b9:c0:28:86:8c:
         a7:27:05:ce:0d:0f:6c:be:5d:42:a3:27:37:e7:e5:8e:4c:5c:
         cd:21:09:64:ef:80:e4:d2:65:dc:8d:c6:04:25:84:e1:b5:01:
         d7:9f:82:3a:58:8c:e5:88:30:90:22:41:ad:b7:c0:74:25:ed:
         d9:70:fd:88:63:6e:e8:20:99:1a:5b:5c:6e:e1:ce:08:6b:68:
         98:b9:2b:65:77:42:2f:49:48:87:47:3d:d4:7a:91:bc:cc:08:
         17:47:85:45:ee:33:9a:e8:b1:9b:db:61:81:98:47:42:0c:cd:
         98:59:75:84:fa:f7:c4:7a:5e:a5:70:76:23:bd:77:00:4a:99:
         69:bd:72:c1
-----BEGIN CERTIFICATE-----
MIIECTCCAvGgAwIBAgIEEAAA0zANBgkqhkiG9w0BAQsFADBEMQswCQYDVQQGEwJE
RTEPMA0GA1UECAwGSGVzc2VuMRQwEgYDVQQKDAtwcml2YWN5aWRlYTEOMAwGA1UE
AwwFQ0EwMDEwHhcNMTcwMzA5MDg0MzQ3WhcNMTgwMzA5MDg0MzQ3WjA3MRMwEQYD
VQQDDApTdGV2ZSBUZXN0MSAwHgYJKoZIhvcNAQkBFhFzdGV2ZUBvcGVuc3NsLm9y
ZzCCASIwDQYJKoZIhvcNAQEBBQADggEPADCCAQoCggEBANKBiSBRSA9z9BEyJNUf
HP1c9bbmxfBSgdzSr2ZKfJMxYVyv0W0GcANgfHIMiN1JzZ4CbNJa11MP89q+aWS1
DwwA47NQR6Ozm7oTUNZYWkurOeARygonZwN4ImZtkh4bXEmu5mvRjjudBtPGrE1T
QxCr6JbBh4KXmY8g05kSNzGE4Yr/KQNfIpA+f5vgIMGt3K5MORoxlhcCjLLZtA0g
Ept9hlT9M/3BKmJG+GCWz24BbyLfE0fnl+wFciOjYvj676yccvA3yy83z5CoJ1GG
xtd4CI9+JaIVcKL7HLYVXqCXi4FMCSiKJzuUvHHbW3E3misW4G+1yfVLTyC6Zc+v
ra0CAwEAAaOCAQ4wggEKMAsGA1UdDwQEAwIFoDAJBgNVHRMEAjAAMBEGCWCGSAGG
+EIBAQQEAwIGQDAzBglghkgBhvhCAQ0EJhYkT3BlblNTTCBHZW5lcmF0ZWQgU2Vy
dmVyIENlcnRpZmljYXRlMB0GA1UdDgQWBBTlJW0+rw3dP0zyRRk51RTbfpzArTB0
BgNVHSMEbTBrgBT0p8DMkUavZPOR8if4yLJviocyc6FIpEYwRDELMAkGA1UEBhMC
REUxDzANBgNVBAgMBkhlc3NlbjEUMBIGA1UECgwLcHJpdmFjeWlkZWExDjAMBgNV
BAMMBUNBMDAxggkA+8jrrIPNEgcwEwYDVR0lBAwwCgYIKwYBBQUHAwEwDQYJKoZI
hvcNAQELBQADggEBABlYm1WkSwYW0I5lDmYIYJXa/aqoBh5MMDR71kMjwrTjoPil
LgsIeveYriH/SajKvEuxK0iBl9j7AqEjwstc6Qsw1Nd0nP75zCe4z8rJ73DDMKpd
8kwGT/W0Rdf5KWKbyldLzc1ZTK0EiK2purhfM20V4Tp9lG9Fl/+5wCiGjKcnBc4N
D2y+XUKjJzfn5Y5MXM0hCWTvgOTSZdyNxgQlhOG1AdefgjpYjOWIMJAiQa23wHQl
7dlw/YhjbuggmRpbXG7hzghraJi5K2V3Qi9JSIdHPdR6kbzMCBdHhUXuM5rosZvb
YYGYR0IMzZhZdYT698R6XqVwdiO9dwBKmWm9csE=
-----END CERTIFICATE-----
