Certificate:
    Data:
        Version: 3 (0x2)
        Serial Number: 268435679 (0x100000df)
    Signature Algorithm: sha256WithRSAEncryption
        Issuer: C=DE, ST=Hessen, O=privacyidea, CN=CA001
        Validity
            Not Before: Mar  3 20:31:37 2017 GMT
            Not After : Mar  3 20:31:37 2018 GMT
        Subject: CN=selfservice,CN=user,O=realm1/emailAddress=meine
        Subject Public Key Info:
            Public Key Algorithm: rsaEncryption
                Public-Key: (2048 bit)
                Modulus:
                    00:cf:3c:d4:33:0e:12:c4:e6:da:cd:b6:56:a1:1c:
                    26:bb:26:1c:8a:4a:73:a8:58:8a:b6:1e:b3:8b:99:
                    d2:1d:07:c2:92:89:79:c0:69:d8:c8:df:28:61:98:
                    1e:b3:fe:ae:2b:bd:78:a9:f7:6e:47:dc:a3:a0:16:
                    8c:85:02:c1:4e:92:fd:72:6e:f0:c8:03:29:9b:b8:
                    00:6e:c0:83:95:c8:34:20:36:9c:b3:e5:e4:e6:76:
                    73:a3:1a:ad:40:96:e0:53:54:00:ec:76:79:9a:c6:
                    0d:7e:b6:bd:29:ec:83:f3:cb:89:a4:cb:6c:00:ba:
                    0c:c5:78:0f:ff:69:b8:94:f4:04:70:43:3f:d8:9e:
                    d7:a7:fb:5d:ce:75:8e:da:e7:c4:07:b1:9d:de:6f:
                    88:4b:b6:4d:9a:cf:f9:bc:fa:9f:cd:32:6d:f6:3a:
                    0b:0d:23:42:78:ec:97:42:bf:0e:4d:60:56:e1:d3:
                    02:f2:19:cb:84:57:90:e5:70:a1:a2:83:35:86:e2:
                    da:86:9f:f9:8a:c4:79:b3:52:28:da:cb:bb:34:ca:
                    d3:da:91:4a:cf:8d:76:a2:b2:6b:9b:f9:96:fd:09:
                    2a:da:11:23:4d:f0:cb:d6:b2:b1:0e:12:6c:9a:19:
                    65:98:87:ca:e4:ee:24:ce:44:ac:90:8f:9d:1b:c5:
                    2a:9d
                Exponent: 65537 (0x10001)
        X509v3 extensions:
            X509v3 Key Usage: 
                Digital Signature, Key Encipherment
            X509v3 Basic Constraints: 
                CA:FALSE
            Netscape Cert Type: 
                SSL Server
            Netscape Comment: 
                OpenSSL Generated Server Certificate
            X509v3 Subject Key Identifier: 
                4D:07:90:AD:FF:1D:0D:E7:1A:DD:D6:2E:FA:BA:34:CB:AA:1F:24:C6
            X509v3 Authority Key Identifier: 
                keyid:F4:A7:C0:CC:91:46:AF:64:F3:91:F2:27:F8:C8:B2:6F:8A:87:32:73
                DirName:/C=DE/ST=Hessen/O=privacyidea/CN=CA001
                serial:FB:C8:EB:AC:83:CD:12:07

            X509v3 Extended Key Usage: 
                TLS Web Server Authentication
    Signature Algorithm: sha256WithRSAEncryption
         45:8f:a0:30:eb:87:39:6a:f3:29:ba:e8:01:a9:4d:35:3e:8e:
         ad:cf:12:d8:a5:af:cf:91:8a:c4:74:d4:d3:b6:bb:9c:1d:9b:
         b2:17:a1:8d:59:42:95:8a:36:00:5d:58:55:10:7e:e6:b4:50:
         af:1c:fa:89:65:1c:92:35:74:04:fa:c1:01:d1:8a:95:5c:23:
         d3:59:20:e6:c2:d3:1f:ca:00:aa:00:6f:68:18:2b:0f:f3:63:
         93:50:bc:14:2d:43:7f:6a:54:f6:4c:ef:0c:c4:1a:f7:d5:07:
         0a:42:c8:34:0b:ea:71:6c:a7:10:e4:b4:eb:b5:79:f2:ca:1d:
         ee:d0:7a:19:06:48:9f:b2:72:34:76:77:48:02:e8:3b:d6:33:
         dc:68:14:9b:ac:4e:48:5c:b3:f0:4b:6c:15:76:44:64:f1:1f:
         c5:1d:1c:28:41:b2:76:19:6a:ac:b5:c4:65:e3:be:52:50:2c:
         43:2c:95:08:5d:9e:6b:6f:ce:21:00:22:33:c8:57:8b:18:bd:
         83:a5:11:c0:b3:42:d3:bd:38:57:8c:70:2b:73:51:79:33:72:
         1a:9d:69:c8:1e:20:ac:44:7d:f0:2c:9b:87:bf:9e:ba:e6:f4:
         fe:08:97:a4:d0:ba:7c:eb:05:7a:84:d5:c1:de:4a:f3:8a:a8:
         a2:f8:71:46
-----BEGIN CERTIFICATE-----
MIIEDzCCAvegAwIBAgIEEAAA3zANBgkqhkiG9w0BAQsFADBEMQswCQYDVQQGEwJE
RTEPMA0GA1UECAwGSGVzc2VuMRQwEgYDVQQKDAtwcml2YWN5aWRlYTEOMAwGA1UE
AwwFQ0EwMDEwHhcNMTcwMzAzMjAzMTM3WhcNMTgwMzAzMjAzMTM3WjA9MSUwIwYD
VQQDDBxzZWxmc2VydmljZSxDTj11c2VyLE89cmVhbG0xMRQwEgYJKoZIhvcNAQkB
FgVtZWluZTCCASIwDQYJKoZIhvcNAQEBBQADggEPADCCAQoCggEBAM881DMOEsTm
2s22VqEcJrsmHIpKc6hYirYes4uZ0h0HwpKJecBp2MjfKGGYHrP+riu9eKn3bkfc
o6AWjIUCwU6S/XJu8MgDKZu4AG7Ag5XINCA2nLPl5OZ2c6MarUCW4FNUAOx2eZrG
DX62vSnsg/PLiaTLbAC6DMV4D/9puJT0BHBDP9ie16f7Xc51jtrnxAexnd5viEu2
TZrP+bz6n80ybfY6Cw0jQnjsl0K/Dk1gVuHTAvIZy4RXkOVwoaKDNYbi2oaf+YrE
ebNSKNrLuzTK09qRSs+NdqKya5v5lv0JKtoRI03wy9aysQ4SbJoZZZiHyuTuJM5E
rJCPnRvFKp0CAwEAAaOCAQ4wggEKMAsGA1UdDwQEAwIFoDAJBgNVHRMEAjAAMBEG
CWCGSAGG+EIBAQQEAwIGQDAzBglghkgBhvhCAQ0EJhYkT3BlblNTTCBHZW5lcmF0
ZWQgU2VydmVyIENlcnRpZmljYXRlMB0GA1UdDgQWBBRNB5Ct/x0N5xrd1i76ujTL
qh8kxjB0BgNVHSMEbTBrgBT0p8DMkUavZPOR8if4yLJviocyc6FIpEYwRDELMAkG
A1UEBhMCREUxDzANBgNVBAgMBkhlc3NlbjEUMBIGA1UECgwLcHJpdmFjeWlkZWEx
DjAMBgNVBAMMBUNBMDAxggkA+8jrrIPNEgcwEwYDVR0lBAwwCgYIKwYBBQUHAwEw
DQYJKoZIhvcNAQELBQADggEBAEWPoDDrhzlq8ym66AGpTTU+jq3PEtilr8+RisR0
1NO2u5wdm7IXoY1ZQpWKNgBdWFUQfua0UK8c+ollHJI1dAT6wQHRipVcI9NZIObC
0x/KAKoAb2gYKw/zY5NQvBQtQ39qVPZM7wzEGvfVBwpCyDQL6nFspxDktOu1efLK
He7QehkGSJ+ycjR2d0gC6DvWM9xoFJusTkhcs/BLbBV2RGTxH8UdHChBsnYZaqy1
xGXjvlJQLEMslQhdnmtvziEAIjPIV4sYvYOlEcCzQtO9OFeMcCtzUXkzchqdacge
IKxEffAsm4e/nrrm9P4Il6TQunzrBXqE1cHeSvOKqKL4cUY=
-----END CERTIFICATE-----
