Certificate:
    Data:
        Version: 3 (0x2)
        Serial Number: 268435686 (0x100000e6)
    Signature Algorithm: sha1WithRSAEncryption
        Issuer: C=DE, ST=Hessen, O=privacyidea, CN=CA001
        Validity
            Not Before: Feb 23 15:25:44 2017 GMT
            Not After : Feb 23 15:25:44 2018 GMT
        Subject: C=DE, ST=Hessen, O=privacyidea, CN=usercert
        Subject Public Key Info:
            Public Key Algorithm: rsaEncryption
                Public-Key: (2048 bit)
                Modulus:
                    00:dc:2f:d1:5f:29:97:d4:7c:c3:53:c8:30:bd:4b:
                    67:70:2c:24:6b:b8:5e:eb:21:7a:48:12:56:7c:81:
                    5c:48:75:b6:68:eb:f6:f2:98:4e:50:51:d1:7f:6c:
                    73:f3:0a:a7:ae:be:48:5e:e5:d6:e1:d9:2a:7c:32:
                    6e:4e:fd:08:f6:5a:54:49:23:73:c3:b9:07:18:d1:
                    ef:b3:ac:f8:8a:dc:94:96:a4:90:3a:8e:74:df:e6:
                    0d:37:1b:bd:5b:b7:25:1a:56:39:da:6f:91:aa:5e:
                    1c:74:f3:f9:7c:14:01:83:12:65:76:c7:bb:fe:36:
                    5b:95:e9:72:65:83:ed:3e:98:30:71:fa:87:dd:a3:
                    36:5a:30:03:2e:26:e0:61:d1:bf:02:3f:b6:06:1f:
                    4a:89:28:1c:5c:a2:ff:4e:be:94:e6:8c:e0:da:82:
                    f1:9d:29:32:48:30:73:b4:04:f6:42:1e:be:f7:e2:
                    32:32:27:3c:9d:89:2f:70:3e:85:9a:6f:5c:c5:09:
                    c0:8c:32:2f:72:22:c9:d2:95:1f:b6:ac:72:60:72:
                    b7:82:4d:6b:ce:5b:e3:00:d0:d2:2f:58:c6:e0:10:
                    e5:51:ca:4d:3b:2e:e6:7e:ab:84:d6:56:f1:93:35:
                    a0:93:64:26:81:75:2f:91:b5:16:06:38:0b:db:cc:
                    2d:07
                Exponent: 65537 (0x10001)
        X509v3 extensions:
            X509v3 Key Usage: 
                Digital Signature, Key Encipherment
            X509v3 Basic Constraints: 
                CA:FALSE
            Netscape Cert Type: 
                SSL Server
            Netscape Comment: 
                OpenSSL Generated Server Certificate
            X509v3 Subject Key Identifier: 
                FC:14:D1:F0:4B:8D:00:90:F2:F5:B8:71:9E:4E:97:C3:92:54:AD:0B
            X509v3 Authority Key Identifier: 
                keyid:F4:A7:C0:CC:91:46:AF:64:F3:91:F2:27:F8:C8:B2:6F:8A:87:32:73
                DirName:/C=DE/ST=Hessen/O=privacyidea/CN=CA001
                serial:FB:C8:EB:AC:83:CD:12:07

            X509v3 Extended Key Usage: 
                TLS Web Server Authentication
    Signature Algorithm: sha1WithRSAEncryption
         8a:01:ba:3e:1a:cf:54:e6:b4:c1:b0:72:2a:c1:02:37:08:a6:
         d4:4c:f2:e6:2c:38:b3:83:cb:e2:85:0d:99:8e:cf:67:cc:c7:
         1e:0d:84:3e:89:ed:55:4d:60:fe:31:24:c0:60:dd:01:11:cc:
         1c:4f:a1:80:99:74:2c:31:65:64:5b:90:90:64:15:4e:b6:5a:
         a7:11:7e:1f:00:4e:d0:87:42:95:e7:68:6a:2d:99:4f:e4:ae:
         a2:d2:b4:43:fa:43:0e:d8:5d:21:dc:3d:fa:03:88:6b:6b:b9:
         aa:21:45:2a:97:3d:15:cd:ff:c8:c4:97:03:f2:cf:9a:74:03:
         78:1b:e2:87:b2:91:e4:df:af:4c:84:b4:de:d5:38:54:5c:6b:
         81:e9:ac:e1:2d:ff:4d:44:6e:d6:b3:24:a6:c1:65:0b:00:f9:
         4c:1c:13:92:1b:0a:cd:99:68:69:68:8c:8a:ce:25:24:16:d4:
         37:cb:d5:0d:f1:55:76:30:68:d1:18:d8:90:37:81:e9:ed:2e:
         96:a7:ae:c9:5b:a8:d2:4e:da:b0:71:4d:f2:70:f6:5d:f0:c6:
         dd:86:4f:57:d1:71:e6:39:16:fb:e7:f3:91:6c:28:63:32:04:
         50:f0:35:86:4d:71:98:93:0e:fd:60:ca:69:9a:12:31:06:6d:
         32:b4:34:f3
-----BEGIN CERTIFICATE-----
MIIEGTCCAwGgAwIBAgIEEAAA5jANBgkqhkiG9w0BAQUFADBEMQswCQYDVQQGEwJE
RTEPMA0GA1UECAwGSGVzc2VuMRQwEgYDVQQKDAtwcml2YWN5aWRlYTEOMAwGA1UE
AwwFQ0EwMDEwHhcNMTcwMjIzMTUyNTQ0WhcNMTgwMjIzMTUyNTQ0WjBHMQswCQYD
VQQGEwJERTEPMA0GA1UECAwGSGVzc2VuMRQwEgYDVQQKDAtwcml2YWN5aWRlYTER
MA8GA1UEAwwIdXNlcmNlcnQwggEiMA0GCSqGSIb3DQEBAQUAA4IBDwAwggEKAoIB
AQDcL9FfKZfUfMNTyDC9S2dwLCRruF7rIXpIElZ8gVxIdbZo6/bymE5QUdF/bHPz
Cqeuvkhe5dbh2Sp8Mm5O/Qj2WlRJI3PDuQcY0e+zrPiK3JSWpJA6jnTf5g03G71b
tyUaVjnab5GqXhx08/l8FAGDEmV2x7v+NluV6XJlg+0+mDBx+ofdozZaMAMuJuBh
0b8CP7YGH0qJKBxcov9OvpTmjODagvGdKTJIMHO0BPZCHr734jIyJzydiS9wPoWa
b1zFCcCMMi9yIsnSlR+2rHJgcreCTWvOW+MA0NIvWMbgEOVRyk07LuZ+q4TWVvGT
NaCTZCaBdS+RtRYGOAvbzC0HAgMBAAGjggEOMIIBCjALBgNVHQ8EBAMCBaAwCQYD
VR0TBAIwADARBglghkgBhvhCAQEEBAMCBkAwMwYJYIZIAYb4QgENBCYWJE9wZW5T
U0wgR2VuZXJhdGVkIFNlcnZlciBDZXJ0aWZpY2F0ZTAdBgNVHQ4EFgQU/BTR8EuN
AJDy9bhxnk6Xw5JUrQswdAYDVR0jBG0wa4AU9KfAzJFGr2TzkfIn+Miyb4qHMnOh
SKRGMEQxCzAJBgNVBAYTAkRFMQ8wDQYDVQQIDAZIZXNzZW4xFDASBgNVBAoMC3By
aXZhY3lpZGVhMQ4wDAYDVQQDDAVDQTAwMYIJAPvI66yDzRIHMBMGA1UdJQQMMAoG
CCsGAQUFBwMBMA0GCSqGSIb3DQEBBQUAA4IBAQCKAbo+Gs9U5rTBsHIqwQI3CKbU
TPLmLDizg8vihQ2Zjs9nzMceDYQ+ie1VTWD+MSTAYN0BEcwcT6GAmXQsMWVkW5CQ
ZBVOtlqnEX4fAE7Qh0KV52hqLZlP5K6i0rRD+kMO2F0h3D36A4hra7mqIUUqlz0V
zf/IxJcD8s+adAN4G+KHspHk369MhLTe1ThUXGuB6azhLf9NRG7WsySmwWULAPlM
HBOSGwrNmWhpaIyKziUkFtQ3y9UN8VV2MGjRGNiQN4Hp7S6Wp67JW6jSTtqwcU3y
cPZd8Mbdhk9X0XHmORb75/ORbChjMgRQ8DWGTXGYkw79YMppmhIxBm0ytDTz
-----END CERTIFICATE-----
