Certificate:
    Data:
        Version: 3 (0x2)
        Serial Number: 268435680 (0x100000e0)
    Signature Algorithm: sha256WithRSAEncryption
        Issuer: C=DE, ST=Hessen, O=privacyidea, CN=CA001
        Validity
            Not Before: Feb 25 00:46:19 2017 GMT
            Not After : Feb 25 00:46:19 2018 GMT
        Subject: C=DE, ST=Hessen, O=privacyidea, CN=usercert
        Subject Public Key Info:
            Public Key Algorithm: rsaEncryption
                Public-Key: (2048 bit)
                Modulus:
                    00:dc:2f:d1:5f:29:97:d4:7c:c3:53:c8:30:bd:4b:
                    67:70:2c:24:6b:b8:5e:eb:21:7a:48:12:56:7c:81:
                    5c:48:75:b6:68:eb:f6:f2:98:4e:50:51:d1:7f:6c:
                    73:f3:0a:a7:ae:be:48:5e:e5:d6:e1:d9:2a:7c:32:
                    6e:4e:fd:08:f6:5a:54:49:23:73:c3:b9:07:18:d1:
                    ef:b3:ac:f8:8a:dc:94:96:a4:90:3a:8e:74:df:e6:
                    0d:37:1b:bd:5b:b7:25:1a:56:39:da:6f:91:aa:5e:
                    1c:74:f3:f9:7c:14:01:83:12:65:76:c7:bb:fe:36:
                    5b:95:e9:72:65:83:ed:3e:98:30:71:fa:87:dd:a3:
                    36:5a:30:03:2e:26:e0:61:d1:bf:02:3f:b6:06:1f:
                    4a:89:28:1c:5c:a2:ff:4e:be:94:e6:8c:e0:da:82:
                    f1:9d:29:32:48:30:73:b4:04:f6:42:1e:be:f7:e2:
                    32:32:27:3c:9d:89:2f:70:3e:85:9a:6f:5c:c5:09:
                    c0:8c:32:2f:72:22:c9:d2:95:1f:b6:ac:72:60:72:
                    b7:82:4d:6b:ce:5b:e3:00:d0:d2:2f:58:c6:e0:10:
                    e5:51:ca:4d:3b:2e:e6:7e:ab:84:d6:56:f1:93:35:
                    a0:93:64:26:81:75:2f:91:b5:16:06:38:0b:db:cc:
                    2d:07
                Exponent: 65537 (0x10001)
        X509v3 extensions:
            X509v3 Key Usage: 
                Digital Signature, Key Encipherment
            X509v3 Basic Constraints: 
                CA:FALSE
            Netscape Cert Type: 
                SSL Server
            Netscape Comment: 
                OpenSSL Generated Server Certificate
            X509v3 Subject Key Identifier: 
                FC:14:D1:F0:4B:8D:00:90:F2:F5:B8:71:9E:4E:97:C3:92:54:AD:0B
            X509v3 Authority Key Identifier: 
                keyid:F4:A7:C0:CC:91:46:AF:64:F3:91:F2:27:F8:C8:B2:6F:8A:87:32:73
                DirName:/C=DE/ST=Hessen/O=privacyidea/CN=CA001
                serial:FB:C8:EB:AC:83:CD:12:07

            X509v3 Extended Key Usage: 
                TLS Web Server Authentication
    Signature Algorithm: sha256WithRSAEncryption
         6c:6f:26:cc:c4:c2:a0:a3:0a:14:54:d2:4b:2e:40:e7:9e:30:
         e1:2d:34:0d:f5:3e:e6:88:fc:b5:b4:43:82:9a:46:84:5d:e8:
         2f:f0:7a:dc:05:11:d0:94:52:4d:58:94:e9:38:dd:97:65:2e:
         a5:5e:1c:2a:1b:d2:c9:51:46:21:ea:84:e0:86:74:c4:88:da:
         14:9f:3d:7a:b4:f8:8e:8c:c4:2f:79:78:73:7e:52:79:cd:ee:
         a3:c4:a1:b9:ad:ae:38:65:27:79:31:e4:ac:66:da:6b:b6:b3:
         13:b8:d3:93:9c:11:a5:bf:50:c5:f9:72:9c:d8:af:55:e2:2e:
         23:72:5f:7b:d5:92:be:ed:d2:d1:27:65:b7:8f:74:ef:d5:e6:
         ae:46:7e:d9:11:e3:e8:42:0c:4f:19:63:f5:c6:41:2d:83:90:
         ea:9b:14:a7:40:cc:30:8d:2c:ce:0e:8d:20:de:de:4a:ce:a6:
         5b:b1:63:35:02:de:92:84:db:2c:e0:24:ed:3c:39:67:70:62:
         67:c3:e9:fb:80:12:77:3b:c0:9b:53:3c:e3:4f:55:cd:65:58:
         12:f6:9c:01:68:76:5a:c7:dd:9b:fc:64:5b:51:70:2d:9b:aa:
         3f:84:d3:f5:d8:f3:3a:d1:1d:e9:55:28:c0:cc:42:4a:7e:55:
         51:5d:1c:99
-----BEGIN CERTIFICATE-----
MIIEGTCCAwGgAwIBAgIEEAAA4DANBgkqhkiG9w0BAQsFADBEMQswCQYDVQQGEwJE
RTEPMA0GA1UECAwGSGVzc2VuMRQwEgYDVQQKDAtwcml2YWN5aWRlYTEOMAwGA1UE
AwwFQ0EwMDEwHhcNMTcwMjI1MDA0NjE5WhcNMTgwMjI1MDA0NjE5WjBHMQswCQYD
VQQGEwJERTEPMA0GA1UECAwGSGVzc2VuMRQwEgYDVQQKDAtwcml2YWN5aWRlYTER
MA8GA1UEAwwIdXNlcmNlcnQwggEiMA0GCSqGSIb3DQEBAQUAA4IBDwAwggEKAoIB
AQDcL9FfKZfUfMNTyDC9S2dwLCRruF7rIXpIElZ8gVxIdbZo6/bymE5QUdF/bHPz
Cqeuvkhe5dbh2Sp8Mm5O/Qj2WlRJI3PDuQcY0e+zrPiK3JSWpJA6jnTf5g03G71b
tyUaVjnab5GqXhx08/l8FAGDEmV2x7v+NluV6XJlg+0+mDBx+ofdozZaMAMuJuBh
0b8CP7YGH0qJKBxcov9OvpTmjODagvGdKTJIMHO0BPZCHr734jIyJzydiS9wPoWa
b1zFCcCMMi9yIsnSlR+2rHJgcreCTWvOW+MA0NIvWMbgEOVRyk07LuZ+q4TWVvGT
NaCTZCaBdS+RtRYGOAvbzC0HAgMBAAGjggEOMIIBCjALBgNVHQ8EBAMCBaAwCQYD
VR0TBAIwADARBglghkgBhvhCAQEEBAMCBkAwMwYJYIZIAYb4QgENBCYWJE9wZW5T
U0wgR2VuZXJhdGVkIFNlcnZlciBDZXJ0aWZpY2F0ZTAdBgNVHQ4EFgQU/BTR8EuN
AJDy9bhxnk6Xw5JUrQswdAYDVR0jBG0wa4AU9KfAzJFGr2TzkfIn+Miyb4qHMnOh
SKRGMEQxCzAJBgNVBAYTAkRFMQ8wDQYDVQQIDAZIZXNzZW4xFDASBgNVBAoMC3By
aXZhY3lpZGVhMQ4wDAYDVQQDDAVDQTAwMYIJAPvI66yDzRIHMBMGA1UdJQQMMAoG
CCsGAQUFBwMBMA0GCSqGSIb3DQEBCwUAA4IBAQBsbybMxMKgowoUVNJLLkDnnjDh
LTQN9T7miPy1tEOCmkaEXegv8HrcBRHQlFJNWJTpON2XZS6lXhwqG9LJUUYh6oTg
hnTEiNoUnz16tPiOjMQveXhzflJ5ze6jxKG5ra44ZSd5MeSsZtprtrMTuNOTnBGl
v1DF+XKc2K9V4i4jcl971ZK+7dLRJ2W3j3Tv1eauRn7ZEePoQgxPGWP1xkEtg5Dq
mxSnQMwwjSzODo0g3t5KzqZbsWM1At6ShNss4CTtPDlncGJnw+n7gBJ3O8CbUzzj
T1XNZVgS9pwBaHZax92b/GRbUXAtm6o/hNP12PM60R3pVSjAzEJKflVRXRyZ
-----END CERTIFICATE-----
