Certificate:
    Data:
        Version: 3 (0x2)
        Serial Number: 268435673 (0x100000d9)
    Signature Algorithm: sha256WithRSAEncryption
        Issuer: C=DE, ST=Hessen, O=privacyidea, CN=CA001
        Validity
            Not Before: Mar  3 20:19:03 2017 GMT
            Not After : Mar  3 20:19:03 2018 GMT
        Subject: C=DE, ST=Hessen, O=privacyidea, CN=requester.localdomain
        Subject Public Key Info:
            Public Key Algorithm: rsaEncryption
                Public-Key: (2048 bit)
                Modulus:
                    00:cd:be:14:4f:fa:ce:01:3f:42:22:1b:1d:9c:af:
                    dd:92:d2:7f:db:6c:b7:3e:39:43:43:6b:13:03:f1:
                    05:f4:07:74:bc:76:69:28:0b:af:19:8e:d7:fc:e3:
                    cd:c6:58:f2:ca:7f:08:6d:53:fc:07:02:44:24:c6:
                    b4:34:4c:8c:04:fe:33:0e:40:e2:20:ba:02:73:5a:
                    f7:f5:4f:63:6e:cc:c6:b6:df:54:1d:37:39:7d:51:
                    36:26:5f:bd:dc:3f:a8:8b:6b:a2:ae:b6:9d:d6:21:
                    e7:df:41:b8:7a:28:2a:68:48:ca:a8:2d:ed:e1:e9:
                    46:5e:5a:72:6d:b4:84:38:87:91:fd:94:11:0b:28:
                    84:c6:c2:2f:2a:fb:01:f9:36:7a:09:75:d1:33:88:
                    3c:73:41:5b:c8:bf:94:89:70:a1:f0:c0:b9:2e:50:
                    53:1e:b1:17:64:69:f4:2d:81:e0:a9:0d:0e:32:e9:
                    ba:55:8a:85:f1:1b:6f:49:79:b4:7f:88:c3:0d:3e:
                    54:88:9b:3d:1f:38:8c:04:f3:ee:6a:63:2b:f5:c6:
                    db:b4:83:aa:c4:78:41:3a:7d:4b:e1:c8:3e:71:ca:
                    1b:61:59:ea:c6:c4:ca:32:5e:c9:e9:bf:12:29:e6:
                    c6:c3:63:fe:a0:55:da:7a:f1:60:98:4d:26:ed:fa:
                    70:2d
                Exponent: 65537 (0x10001)
        X509v3 extensions:
            X509v3 Key Usage: 
                Digital Signature, Key Encipherment
            X509v3 Basic Constraints: 
                CA:FALSE
            Netscape Cert Type: 
                SSL Server
            Netscape Comment: 
                OpenSSL Generated Server Certificate
            X509v3 Subject Key Identifier: 
                53:3F:ED:5D:09:07:B3:65:7B:AB:45:C9:24:5B:09:77:80:0A:96:ED
            X509v3 Authority Key Identifier: 
                keyid:F4:A7:C0:CC:91:46:AF:64:F3:91:F2:27:F8:C8:B2:6F:8A:87:32:73
                DirName:/C=DE/ST=Hessen/O=privacyidea/CN=CA001
                serial:FB:C8:EB:AC:83:CD:12:07

            X509v3 Extended Key Usage: 
                TLS Web Server Authentication
    Signature Algorithm: sha256WithRSAEncryption
         1d:6e:0d:9b:ef:21:84:5f:19:63:60:0e:e3:84:e6:68:79:9b:
         7b:e8:31:5c:93:74:6f:ca:e5:54:7f:8e:be:fe:04:2f:cd:21:
         de:b0:9a:2e:37:32:de:ec:cb:c5:a1:38:ad:35:c3:04:40:d2:
         78:09:8f:44:8d:6b:2d:4f:a6:0d:d4:95:f4:55:88:f4:96:e8:
         15:92:77:2c:c2:a9:36:48:7d:98:3c:de:23:0f:14:0c:99:19:
         76:53:31:9c:a7:c4:8c:db:15:19:23:aa:b5:79:9c:7a:de:5a:
         2d:94:46:52:c5:10:1e:96:3b:bc:4c:83:a0:b2:32:47:70:97:
         bf:0d:f9:c1:1e:00:a0:95:e6:9f:8f:36:6e:44:e4:55:0e:5b:
         5e:d8:9f:26:fa:7c:45:e3:d5:d2:c0:47:6c:e2:01:3b:88:70:
         22:ec:c5:34:10:f5:86:25:8c:1c:15:19:7b:c1:e1:bb:e3:c8:
         2f:f0:aa:e4:b3:13:f7:c8:fa:ea:75:ea:35:7f:64:60:6f:2b:
         68:1d:95:7b:1b:0c:a2:4e:0f:bf:08:6a:35:6e:20:45:84:3e:
         3c:c7:24:b5:0e:47:ac:3b:32:43:3c:db:cc:ee:85:01:5c:e7:
         e9:fb:60:9e:42:f5:55:5f:38:ee:1f:bf:42:16:83:e2:aa:bc:
         9c:de:d0:de
-----BEGIN CERTIFICATE-----
MIIEJjCCAw6gAwIBAgIEEAAA2TANBgkqhkiG9w0BAQsFADBEMQswCQYDVQQGEwJE
RTEPMA0GA1UECAwGSGVzc2VuMRQwEgYDVQQKDAtwcml2YWN5aWRlYTEOMAwGA1UE
AwwFQ0EwMDEwHhcNMTcwMzAzMjAxOTAzWhcNMTgwMzAzMjAxOTAzWjBUMQswCQYD
VQQGEwJERTEPMA0GA1UECAwGSGVzc2VuMRQwEgYDVQQKDAtwcml2YWN5aWRlYTEe
MBwGA1UEAwwVcmVxdWVzdGVyLmxvY2FsZG9tYWluMIIBIjANBgkqhkiG9w0BAQEF
AAOCAQ8AMIIBCgKCAQEAzb4UT/rOAT9CIhsdnK/dktJ/22y3PjlDQ2sTA/EF9Ad0
vHZpKAuvGY7X/OPNxljyyn8IbVP8BwJEJMa0NEyMBP4zDkDiILoCc1r39U9jbszG
tt9UHTc5fVE2Jl+93D+oi2uirrad1iHn30G4eigqaEjKqC3t4elGXlpybbSEOIeR
/ZQRCyiExsIvKvsB+TZ6CXXRM4g8c0FbyL+UiXCh8MC5LlBTHrEXZGn0LYHgqQ0O
Mum6VYqF8RtvSXm0f4jDDT5UiJs9HziMBPPuamMr9cbbtIOqxHhBOn1L4cg+ccob
YVnqxsTKMl7J6b8SKebGw2P+oFXaevFgmE0m7fpwLQIDAQABo4IBDjCCAQowCwYD
VR0PBAQDAgWgMAkGA1UdEwQCMAAwEQYJYIZIAYb4QgEBBAQDAgZAMDMGCWCGSAGG
+EIBDQQmFiRPcGVuU1NMIEdlbmVyYXRlZCBTZXJ2ZXIgQ2VydGlmaWNhdGUwHQYD
VR0OBBYEFFM/7V0JB7Nle6tFySRbCXeACpbtMHQGA1UdIwRtMGuAFPSnwMyRRq9k
85HyJ/jIsm+KhzJzoUikRjBEMQswCQYDVQQGEwJERTEPMA0GA1UECAwGSGVzc2Vu
MRQwEgYDVQQKDAtwcml2YWN5aWRlYTEOMAwGA1UEAwwFQ0EwMDGCCQD7yOusg80S
BzATBgNVHSUEDDAKBggrBgEFBQcDATANBgkqhkiG9w0BAQsFAAOCAQEAHW4Nm+8h
hF8ZY2AO44TmaHmbe+gxXJN0b8rlVH+Ovv4EL80h3rCaLjcy3uzLxaE4rTXDBEDS
eAmPRI1rLU+mDdSV9FWI9JboFZJ3LMKpNkh9mDzeIw8UDJkZdlMxnKfEjNsVGSOq
tXmcet5aLZRGUsUQHpY7vEyDoLIyR3CXvw35wR4AoJXmn482bkTkVQ5bXtifJvp8
RePV0sBHbOIBO4hwIuzFNBD1hiWMHBUZe8Hhu+PIL/Cq5LMT98j66nXqNX9kYG8r
aB2VexsMok4PvwhqNW4gRYQ+PMcktQ5HrDsyQzzbzO6FAVzn6ftgnkL1VV847h+/
QhaD4qq8nN7Q3g==
-----END CERTIFICATE-----
