Certificate:
    Data:
        Version: 3 (0x2)
        Serial Number: 268435666 (0x100000d2)
    Signature Algorithm: sha256WithRSAEncryption
        Issuer: C=DE, ST=Hessen, O=privacyidea, CN=CA001
        Validity
            Not Before: Mar  9 08:43:47 2017 GMT
            Not After : Mar  9 08:43:47 2018 GMT
        Subject: C=DE, ST=Hessen, O=privacyidea, CN=usercert
        Subject Public Key Info:
            Public Key Algorithm: rsaEncryption
                Public-Key: (2048 bit)
                Modulus:
                    00:dc:2f:d1:5f:29:97:d4:7c:c3:53:c8:30:bd:4b:
                    67:70:2c:24:6b:b8:5e:eb:21:7a:48:12:56:7c:81:
                    5c:48:75:b6:68:eb:f6:f2:98:4e:50:51:d1:7f:6c:
                    73:f3:0a:a7:ae:be:48:5e:e5:d6:e1:d9:2a:7c:32:
                    6e:4e:fd:08:f6:5a:54:49:23:73:c3:b9:07:18:d1:
                    ef:b3:ac:f8:8a:dc:94:96:a4:90:3a:8e:74:df:e6:
                    0d:37:1b:bd:5b:b7:25:1a:56:39:da:6f:91:aa:5e:
                    1c:74:f3:f9:7c:14:01:83:12:65:76:c7:bb:fe:36:
                    5b:95:e9:72:65:83:ed:3e:98:30:71:fa:87:dd:a3:
                    36:5a:30:03:2e:26:e0:61:d1:bf:02:3f:b6:06:1f:
                    4a:89:28:1c:5c:a2:ff:4e:be:94:e6:8c:e0:da:82:
                    f1:9d:29:32:48:30:73:b4:04:f6:42:1e:be:f7:e2:
                    32:32:27:3c:9d:89:2f:70:3e:85:9a:6f:5c:c5:09:
                    c0:8c:32:2f:72:22:c9:d2:95:1f:b6:ac:72:60:72:
                    b7:82:4d:6b:ce:5b:e3:00:d0:d2:2f:58:c6:e0:10:
                    e5:51:ca:4d:3b:2e:e6:7e:ab:84:d6:56:f1:93:35:
                    a0:93:64:26:81:75:2f:91:b5:16:06:38:0b:db:cc:
                    2d:07
                Exponent: 65537 (0x10001)
        X509v3 extensions:
            X509v3 Key Usage: 
                Digital Signature, Key Encipherment
            X509v3 Basic Constraints: 
                CA:FALSE
            Netscape Cert Type: 
                SSL Server
            Netscape Comment: 
                OpenSSL Generated Server Certificate
            X509v3 Subject Key Identifier: 
                FC:14:D1:F0:4B:8D:00:90:F2:F5:B8:71:9E:4E:97:C3:92:54:AD:0B
            X509v3 Authority Key Identifier: 
                keyid:F4:A7:C0:CC:91:46:AF:64:F3:91:F2:27:F8:C8:B2:6F:8A:87:32:73
                DirName:/C=DE/ST=Hessen/O=privacyidea/CN=CA001
                serial:FB:C8:EB:AC:83:CD:12:07

            X509v3 Extended Key Usage: 
                TLS Web Server Authentication
    Signature Algorithm: sha256WithRSAEncryption
         59:ad:2b:a3:7c:4d:87:ba:5d:80:28:7e:e4:7a:a4:14:ec:50:
         94:8b:bc:15:c5:fb:0f:99:49:3f:91:b8:a6:09:ce:72:61:5e:
         73:88:f7:bb:b3:53:59:5f:44:41:dc:84:77:89:8a:9d:77:ee:
         0a:d6:1d:3d:2f:4b:40:3e:22:c3:39:02:7f:db:7d:ad:07:e7:
         da:80:ff:52:84:c5:43:d4:c1:c3:9d:ae:7e:2d:27:36:ca:5b:
         1e:2c:f8:b5:9e:13:9c:3f:92:11:c4:63:66:d3:92:ac:ef:d5:
         2e:9c:45:ea:50:9c:d1:9e:69:c8:82:ef:55:58:2c:08:c8:fe:
         8a:f7:fb:34:e1:b3:50:74:e3:ed:92:9d:5b:a5:b6:6b:5c:67:
         d1:d1:bc:48:79:3a:45:fc:a6:a9:8f:7f:56:8d:f4:87:7f:79:
         f2:76:ac:57:2b:a3:89:3b:ce:ab:69:fd:be:d8:ce:ae:5d:02:
         4a:8d:01:76:d9:b8:a7:e1:59:a6:96:9b:f7:a2:e6:43:53:9d:
         b3:8e:de:f0:3c:bb:cf:c4:40:fe:10:5c:cd:ba:63:09:96:f0:
         14:c0:92:8a:11:9e:f7:a3:71:cd:10:c6:a0:3f:bb:8c:9c:6d:
         5d:db:71:34:c3:65:26:4d:01:e9:21:36:ac:43:63:f7:cc:f7:
         8e:5e:87:b1
-----BEGIN CERTIFICATE-----
MIIEGTCCAwGgAwIBAgIEEAAA0jANBgkqhkiG9w0BAQsFADBEMQswCQYDVQQGEwJE
RTEPMA0GA1UECAwGSGVzc2VuMRQwEgYDVQQKDAtwcml2YWN5aWRlYTEOMAwGA1UE
AwwFQ0EwMDEwHhcNMTcwMzA5MDg0MzQ3WhcNMTgwMzA5MDg0MzQ3WjBHMQswCQYD
VQQGEwJERTEPMA0GA1UECAwGSGVzc2VuMRQwEgYDVQQKDAtwcml2YWN5aWRlYTER
MA8GA1UEAwwIdXNlcmNlcnQwggEiMA0GCSqGSIb3DQEBAQUAA4IBDwAwggEKAoIB
AQDcL9FfKZfUfMNTyDC9S2dwLCRruF7rIXpIElZ8gVxIdbZo6/bymE5QUdF/bHPz
Cqeuvkhe5dbh2Sp8Mm5O/Qj2WlRJI3PDuQcY0e+zrPiK3JSWpJA6jnTf5g03G71b
tyUaVjnab5GqXhx08/l8FAGDEmV2x7v+NluV6XJlg+0+mDBx+ofdozZaMAMuJuBh
0b8CP7YGH0qJKBxcov9OvpTmjODagvGdKTJIMHO0BPZCHr734jIyJzydiS9wPoWa
b1zFCcCMMi9yIsnSlR+2rHJgcreCTWvOW+MA0NIvWMbgEOVRyk07LuZ+q4TWVvGT
NaCTZCaBdS+RtRYGOAvbzC0HAgMBAAGjggEOMIIBCjALBgNVHQ8EBAMCBaAwCQYD
VR0TBAIwADARBglghkgBhvhCAQEEBAMCBkAwMwYJYIZIAYb4QgENBCYWJE9wZW5T
U0wgR2VuZXJhdGVkIFNlcnZlciBDZXJ0aWZpY2F0ZTAdBgNVHQ4EFgQU/BTR8EuN
AJDy9bhxnk6Xw5JUrQswdAYDVR0jBG0wa4AU9KfAzJFGr2TzkfIn+Miyb4qHMnOh
SKRGMEQxCzAJBgNVBAYTAkRFMQ8wDQYDVQQIDAZIZXNzZW4xFDASBgNVBAoMC3By
aXZhY3lpZGVhMQ4wDAYDVQQDDAVDQTAwMYIJAPvI66yDzRIHMBMGA1UdJQQMMAoG
CCsGAQUFBwMBMA0GCSqGSIb3DQEBCwUAA4IBAQBZrSujfE2Hul2AKH7keqQU7FCU
i7wVxfsPmUk/kbimCc5yYV5ziPe7s1NZX0RB3IR3iYqdd+4K1h09L0tAPiLDOQJ/
232tB+fagP9ShMVD1MHDna5+LSc2ylseLPi1nhOcP5IRxGNm05Ks79UunEXqUJzR
nmnIgu9VWCwIyP6K9/s04bNQdOPtkp1bpbZrXGfR0bxIeTpF/Kapj39WjfSHf3ny
dqxXK6OJO86raf2+2M6uXQJKjQF22bin4Vmmlpv3ouZDU52zjt7wPLvPxED+EFzN
umMJlvAUwJKKEZ73o3HNEMagP7uMnG1d23E0w2UmTQHpITasQ2P3zPeOXoex
-----END CERTIFICATE-----
