Certificate:
    Data:
        Version: 3 (0x2)
        Serial Number: 268435665 (0x100000d1)
    Signature Algorithm: sha256WithRSAEncryption
        Issuer: C=DE, ST=Hessen, O=privacyidea, CN=CA001
        Validity
            Not Before: Mar  9 08:43:46 2017 GMT
            Not After : Mar  9 08:43:46 2018 GMT
        Subject: C=DE, ST=Hessen, O=privacyidea, CN=requester.localdomain
        Subject Public Key Info:
            Public Key Algorithm: rsaEncryption
                Public-Key: (2048 bit)
                Modulus:
                    00:cd:be:14:4f:fa:ce:01:3f:42:22:1b:1d:9c:af:
                    dd:92:d2:7f:db:6c:b7:3e:39:43:43:6b:13:03:f1:
                    05:f4:07:74:bc:76:69:28:0b:af:19:8e:d7:fc:e3:
                    cd:c6:58:f2:ca:7f:08:6d:53:fc:07:02:44:24:c6:
                    b4:34:4c:8c:04:fe:33:0e:40:e2:20:ba:02:73:5a:
                    f7:f5:4f:63:6e:cc:c6:b6:df:54:1d:37:39:7d:51:
                    36:26:5f:bd:dc:3f:a8:8b:6b:a2:ae:b6:9d:d6:21:
                    e7:df:41:b8:7a:28:2a:68:48:ca:a8:2d:ed:e1:e9:
                    46:5e:5a:72:6d:b4:84:38:87:91:fd:94:11:0b:28:
                    84:c6:c2:2f:2a:fb:01:f9:36:7a:09:75:d1:33:88:
                    3c:73:41:5b:c8:bf:94:89:70:a1:f0:c0:b9:2e:50:
                    53:1e:b1:17:64:69:f4:2d:81:e0:a9:0d:0e:32:e9:
                    ba:55:8a:85:f1:1b:6f:49:79:b4:7f:88:c3:0d:3e:
                    54:88:9b:3d:1f:38:8c:04:f3:ee:6a:63:2b:f5:c6:
                    db:b4:83:aa:c4:78:41:3a:7d:4b:e1:c8:3e:71:ca:
                    1b:61:59:ea:c6:c4:ca:32:5e:c9:e9:bf:12:29:e6:
                    c6:c3:63:fe:a0:55:da:7a:f1:60:98:4d:26:ed:fa:
                    70:2d
                Exponent: 65537 (0x10001)
        X509v3 extensions:
            X509v3 Key Usage: 
                Digital Signature, Key Encipherment
            X509v3 Basic Constraints: 
                CA:FALSE
            Netscape Cert Type: 
                SSL Server
            Netscape Comment: 
                OpenSSL Generated Server Certificate
            X509v3 Subject Key Identifier: 
                53:3F:ED:5D:09:07:B3:65:7B:AB:45:C9:24:5B:09:77:80:0A:96:ED
            X509v3 Authority Key Identifier: 
                keyid:F4:A7:C0:CC:91:46:AF:64:F3:91:F2:27:F8:C8:B2:6F:8A:87:32:73
                DirName:/C=DE/ST=Hessen/O=privacyidea/CN=CA001
                serial:FB:C8:EB:AC:83:CD:12:07

            X509v3 Extended Key Usage: 
                TLS Web Server Authentication
    Signature Algorithm: sha256WithRSAEncryption
         26:a2:11:73:69:3a:ce:90:46:e6:2b:58:ab:04:83:19:26:7a:
         4a:5d:55:8f:ca:2b:10:a5:28:59:a6:0e:15:9c:ff:dd:16:76:
         dd:ca:32:4e:a9:50:0d:a6:42:55:66:69:b6:bc:62:b6:0a:99:
         31:77:c3:35:ae:11:49:ef:10:be:4b:79:9a:95:55:a9:e9:ab:
         2b:da:bc:f1:08:84:57:ed:de:a3:16:4c:00:3e:90:b7:ad:73:
         0d:ab:cb:e8:32:d5:cd:4d:e6:8b:44:5e:ec:78:e8:78:7c:91:
         d4:d6:65:21:55:59:5d:bd:8b:d0:9f:7e:9b:8b:05:d1:ed:d0:
         c3:96:34:9c:db:fa:ae:8d:f5:4f:f2:0e:58:c2:59:87:c4:e1:
         38:2e:58:61:bd:9c:a5:5d:90:ed:db:36:f2:12:47:e4:06:97:
         6a:44:0b:6c:9d:77:53:64:69:a1:31:7a:48:60:66:6f:dd:e2:
         45:c2:3f:63:b1:67:73:bb:05:79:3a:c8:39:8c:f5:28:bd:9e:
         a6:b5:ca:26:b1:f9:c1:11:49:f9:6c:51:9f:d6:8e:f9:25:6b:
         7f:4a:c7:f5:24:c9:e3:3f:64:44:57:bb:6c:32:03:c6:2e:3c:
         de:26:31:5a:ed:fd:82:6d:76:87:89:d0:19:39:45:64:e4:f6:
         c5:2e:07:e2
-----BEGIN CERTIFICATE-----
MIIEJjCCAw6gAwIBAgIEEAAA0TANBgkqhkiG9w0BAQsFADBEMQswCQYDVQQGEwJE
RTEPMA0GA1UECAwGSGVzc2VuMRQwEgYDVQQKDAtwcml2YWN5aWRlYTEOMAwGA1UE
AwwFQ0EwMDEwHhcNMTcwMzA5MDg0MzQ2WhcNMTgwMzA5MDg0MzQ2WjBUMQswCQYD
VQQGEwJERTEPMA0GA1UECAwGSGVzc2VuMRQwEgYDVQQKDAtwcml2YWN5aWRlYTEe
MBwGA1UEAwwVcmVxdWVzdGVyLmxvY2FsZG9tYWluMIIBIjANBgkqhkiG9w0BAQEF
AAOCAQ8AMIIBCgKCAQEAzb4UT/rOAT9CIhsdnK/dktJ/22y3PjlDQ2sTA/EF9Ad0
vHZpKAuvGY7X/OPNxljyyn8IbVP8BwJEJMa0NEyMBP4zDkDiILoCc1r39U9jbszG
tt9UHTc5fVE2Jl+93D+oi2uirrad1iHn30G4eigqaEjKqC3t4elGXlpybbSEOIeR
/ZQRCyiExsIvKvsB+TZ6CXXRM4g8c0FbyL+UiXCh8MC5LlBTHrEXZGn0LYHgqQ0O
Mum6VYqF8RtvSXm0f4jDDT5UiJs9HziMBPPuamMr9cbbtIOqxHhBOn1L4cg+ccob
YVnqxsTKMl7J6b8SKebGw2P+oFXaevFgmE0m7fpwLQIDAQABo4IBDjCCAQowCwYD
VR0PBAQDAgWgMAkGA1UdEwQCMAAwEQYJYIZIAYb4QgEBBAQDAgZAMDMGCWCGSAGG
+EIBDQQmFiRPcGVuU1NMIEdlbmVyYXRlZCBTZXJ2ZXIgQ2VydGlmaWNhdGUwHQYD
VR0OBBYEFFM/7V0JB7Nle6tFySRbCXeACpbtMHQGA1UdIwRtMGuAFPSnwMyRRq9k
85HyJ/jIsm+KhzJzoUikRjBEMQswCQYDVQQGEwJERTEPMA0GA1UECAwGSGVzc2Vu
MRQwEgYDVQQKDAtwcml2YWN5aWRlYTEOMAwGA1UEAwwFQ0EwMDGCCQD7yOusg80S
BzATBgNVHSUEDDAKBggrBgEFBQcDATANBgkqhkiG9w0BAQsFAAOCAQEAJqIRc2k6
zpBG5itYqwSDGSZ6Sl1Vj8orEKUoWaYOFZz/3RZ23coyTqlQDaZCVWZptrxitgqZ
MXfDNa4RSe8Qvkt5mpVVqemrK9q88QiEV+3eoxZMAD6Qt61zDavL6DLVzU3mi0Re
7HjoeHyR1NZlIVVZXb2L0J9+m4sF0e3Qw5Y0nNv6ro31T/IOWMJZh8ThOC5YYb2c
pV2Q7ds28hJH5AaXakQLbJ13U2RpoTF6SGBmb93iRcI/Y7Fnc7sFeTrIOYz1KL2e
prXKJrH5wRFJ+WxRn9aO+SVrf0rH9STJ4z9kRFe7bDIDxi483iYxWu39gm12h4nQ
GTlFZOT2xS4H4g==
-----END CERTIFICATE-----
