Certificate:
    Data:
        Version: 3 (0x2)
        Serial Number: 268435664 (0x100000d0)
    Signature Algorithm: sha256WithRSAEncryption
        Issuer: C=DE, ST=Hessen, O=privacyidea, CN=CA001
        Validity
            Not Before: Mar  9 08:42:20 2017 GMT
            Not After : Mar  9 08:42:20 2018 GMT
        Subject: C=DE, ST=Hessen, O=privacyidea, CN=requester.localdomain
        Subject Public Key Info:
            Public Key Algorithm: rsaEncryption
                Public-Key: (2048 bit)
                Modulus:
                    00:cd:be:14:4f:fa:ce:01:3f:42:22:1b:1d:9c:af:
                    dd:92:d2:7f:db:6c:b7:3e:39:43:43:6b:13:03:f1:
                    05:f4:07:74:bc:76:69:28:0b:af:19:8e:d7:fc:e3:
                    cd:c6:58:f2:ca:7f:08:6d:53:fc:07:02:44:24:c6:
                    b4:34:4c:8c:04:fe:33:0e:40:e2:20:ba:02:73:5a:
                    f7:f5:4f:63:6e:cc:c6:b6:df:54:1d:37:39:7d:51:
                    36:26:5f:bd:dc:3f:a8:8b:6b:a2:ae:b6:9d:d6:21:
                    e7:df:41:b8:7a:28:2a:68:48:ca:a8:2d:ed:e1:e9:
                    46:5e:5a:72:6d:b4:84:38:87:91:fd:94:11:0b:28:
                    84:c6:c2:2f:2a:fb:01:f9:36:7a:09:75:d1:33:88:
                    3c:73:41:5b:c8:bf:94:89:70:a1:f0:c0:b9:2e:50:
                    53:1e:b1:17:64:69:f4:2d:81:e0:a9:0d:0e:32:e9:
                    ba:55:8a:85:f1:1b:6f:49:79:b4:7f:88:c3:0d:3e:
                    54:88:9b:3d:1f:38:8c:04:f3:ee:6a:63:2b:f5:c6:
                    db:b4:83:aa:c4:78:41:3a:7d:4b:e1:c8:3e:71:ca:
                    1b:61:59:ea:c6:c4:ca:32:5e:c9:e9:bf:12:29:e6:
                    c6:c3:63:fe:a0:55:da:7a:f1:60:98:4d:26:ed:fa:
                    70:2d
                Exponent: 65537 (0x10001)
        X509v3 extensions:
            X509v3 Key Usage: 
                Digital Signature, Key Encipherment
            X509v3 Basic Constraints: 
                CA:FALSE
            Netscape Cert Type: 
                SSL Server
            Netscape Comment: 
                OpenSSL Generated Server Certificate
            X509v3 Subject Key Identifier: 
                53:3F:ED:5D:09:07:B3:65:7B:AB:45:C9:24:5B:09:77:80:0A:96:ED
            X509v3 Authority Key Identifier: 
                keyid:F4:A7:C0:CC:91:46:AF:64:F3:91:F2:27:F8:C8:B2:6F:8A:87:32:73
                DirName:/C=DE/ST=Hessen/O=privacyidea/CN=CA001
                serial:FB:C8:EB:AC:83:CD:12:07

            X509v3 Extended Key Usage: 
                TLS Web Server Authentication
    Signature Algorithm: sha256WithRSAEncryption
         b2:82:49:1c:49:28:84:bd:00:84:95:7a:94:3b:0f:ca:0a:69:
         71:ad:e1:d4:7c:9c:5a:f3:89:57:23:53:9d:6b:af:16:ec:24:
         a2:3f:0b:69:19:42:d7:e8:78:a4:a1:37:f2:b7:15:41:d4:30:
         65:f9:25:44:3b:90:d0:78:e6:41:b8:99:88:16:d8:06:67:5d:
         8a:85:83:76:b9:87:46:b0:00:62:06:ee:00:73:7b:59:ff:a3:
         4b:a4:60:4e:44:c7:d5:04:c8:f9:d7:0b:e8:a9:24:68:ab:c0:
         bd:8b:b8:e9:da:fb:2a:dd:7a:d2:20:d3:9c:5c:cc:f9:52:8a:
         da:04:ac:d2:1a:e9:47:e9:74:5c:c1:56:03:3e:0a:67:c7:f4:
         c4:84:22:bd:5a:03:da:01:9a:bc:83:88:a4:27:2c:b6:a6:04:
         36:62:7d:6f:e5:84:76:c2:2a:79:34:96:c2:b6:53:39:5e:07:
         51:c1:b9:db:e5:11:42:a5:62:62:20:c6:e4:2d:94:2c:45:b9:
         8d:a4:01:4b:bc:1a:1d:60:1c:c2:6a:68:c8:ac:a8:ac:18:e1:
         a1:8b:7f:04:26:f8:7a:ab:b2:68:b3:62:c4:79:9f:de:65:2a:
         aa:e7:df:68:78:5e:c0:28:83:bc:5f:13:a8:d0:60:ea:0c:dc:
         31:45:26:f9
-----BEGIN CERTIFICATE-----
MIIEJjCCAw6gAwIBAgIEEAAA0DANBgkqhkiG9w0BAQsFADBEMQswCQYDVQQGEwJE
RTEPMA0GA1UECAwGSGVzc2VuMRQwEgYDVQQKDAtwcml2YWN5aWRlYTEOMAwGA1UE
AwwFQ0EwMDEwHhcNMTcwMzA5MDg0MjIwWhcNMTgwMzA5MDg0MjIwWjBUMQswCQYD
VQQGEwJERTEPMA0GA1UECAwGSGVzc2VuMRQwEgYDVQQKDAtwcml2YWN5aWRlYTEe
MBwGA1UEAwwVcmVxdWVzdGVyLmxvY2FsZG9tYWluMIIBIjANBgkqhkiG9w0BAQEF
AAOCAQ8AMIIBCgKCAQEAzb4UT/rOAT9CIhsdnK/dktJ/22y3PjlDQ2sTA/EF9Ad0
vHZpKAuvGY7X/OPNxljyyn8IbVP8BwJEJMa0NEyMBP4zDkDiILoCc1r39U9jbszG
tt9UHTc5fVE2Jl+93D+oi2uirrad1iHn30G4eigqaEjKqC3t4elGXlpybbSEOIeR
/ZQRCyiExsIvKvsB+TZ6CXXRM4g8c0FbyL+UiXCh8MC5LlBTHrEXZGn0LYHgqQ0O
Mum6VYqF8RtvSXm0f4jDDT5UiJs9HziMBPPuamMr9cbbtIOqxHhBOn1L4cg+ccob
YVnqxsTKMl7J6b8SKebGw2P+oFXaevFgmE0m7fpwLQIDAQABo4IBDjCCAQowCwYD
VR0PBAQDAgWgMAkGA1UdEwQCMAAwEQYJYIZIAYb4QgEBBAQDAgZAMDMGCWCGSAGG
+EIBDQQmFiRPcGVuU1NMIEdlbmVyYXRlZCBTZXJ2ZXIgQ2VydGlmaWNhdGUwHQYD
VR0OBBYEFFM/7V0JB7Nle6tFySRbCXeACpbtMHQGA1UdIwRtMGuAFPSnwMyRRq9k
85HyJ/jIsm+KhzJzoUikRjBEMQswCQYDVQQGEwJERTEPMA0GA1UECAwGSGVzc2Vu
MRQwEgYDVQQKDAtwcml2YWN5aWRlYTEOMAwGA1UEAwwFQ0EwMDGCCQD7yOusg80S
BzATBgNVHSUEDDAKBggrBgEFBQcDATANBgkqhkiG9w0BAQsFAAOCAQEAsoJJHEko
hL0AhJV6lDsPygppca3h1HycWvOJVyNTnWuvFuwkoj8LaRlC1+h4pKE38rcVQdQw
ZfklRDuQ0HjmQbiZiBbYBmddioWDdrmHRrAAYgbuAHN7Wf+jS6RgTkTH1QTI+dcL
6KkkaKvAvYu46dr7Kt160iDTnFzM+VKK2gSs0hrpR+l0XMFWAz4KZ8f0xIQivVoD
2gGavIOIpCcstqYENmJ9b+WEdsIqeTSWwrZTOV4HUcG52+URQqViYiDG5C2ULEW5
jaQBS7waHWAcwmpoyKyorBjhoYt/BCb4equyaLNixHmf3mUqquffaHhewCiDvF8T
qNBg6gzcMUUm+Q==
-----END CERTIFICATE-----
