Certificate:
    Data:
        Version: 3 (0x2)
        Serial Number: 268435687 (0x100000e7)
    Signature Algorithm: sha1WithRSAEncryption
        Issuer: C=DE, ST=Hessen, O=privacyidea, CN=CA001
        Validity
            Not Before: Feb 23 15:25:44 2017 GMT
            Not After : Feb 23 15:25:44 2018 GMT
        Subject: CN=Steve Test/emailAddress=steve@openssl.org
        Subject Public Key Info:
            Public Key Algorithm: rsaEncryption
                Public-Key: (2048 bit)
                Modulus:
                    00:d2:81:89:20:51:48:0f:73:f4:11:32:24:d5:1f:
                    1c:fd:5c:f5:b6:e6:c5:f0:52:81:dc:d2:af:66:4a:
                    7c:93:31:61:5c:af:d1:6d:06:70:03:60:7c:72:0c:
                    88:dd:49:cd:9e:02:6c:d2:5a:d7:53:0f:f3:da:be:
                    69:64:b5:0f:0c:00:e3:b3:50:47:a3:b3:9b:ba:13:
                    50:d6:58:5a:4b:ab:39:e0:11:ca:0a:27:67:03:78:
                    22:66:6d:92:1e:1b:5c:49:ae:e6:6b:d1:8e:3b:9d:
                    06:d3:c6:ac:4d:53:43:10:ab:e8:96:c1:87:82:97:
                    99:8f:20:d3:99:12:37:31:84:e1:8a:ff:29:03:5f:
                    22:90:3e:7f:9b:e0:20:c1:ad:dc:ae:4c:39:1a:31:
                    96:17:02:8c:b2:d9:b4:0d:20:12:9b:7d:86:54:fd:
                    33:fd:c1:2a:62:46:f8:60:96:cf:6e:01:6f:22:df:
                    13:47:e7:97:ec:05:72:23:a3:62:f8:fa:ef:ac:9c:
                    72:f0:37:cb:2f:37:cf:90:a8:27:51:86:c6:d7:78:
                    08:8f:7e:25:a2:15:70:a2:fb:1c:b6:15:5e:a0:97:
                    8b:81:4c:09:28:8a:27:3b:94:bc:71:db:5b:71:37:
                    9a:2b:16:e0:6f:b5:c9:f5:4b:4f:20:ba:65:cf:af:
                    ad:ad
                Exponent: 65537 (0x10001)
        X509v3 extensions:
            X509v3 Key Usage: 
                Digital Signature, Key Encipherment
            X509v3 Basic Constraints: 
                CA:FALSE
            Netscape Cert Type: 
                SSL Server
            Netscape Comment: 
                OpenSSL Generated Server Certificate
            X509v3 Subject Key Identifier: 
                E5:25:6D:3E:AF:0D:DD:3F:4C:F2:45:19:39:D5:14:DB:7E:9C:C0:AD
            X509v3 Authority Key Identifier: 
                keyid:F4:A7:C0:CC:91:46:AF:64:F3:91:F2:27:F8:C8:B2:6F:8A:87:32:73
                DirName:/C=DE/ST=Hessen/O=privacyidea/CN=CA001
                serial:FB:C8:EB:AC:83:CD:12:07

            X509v3 Extended Key Usage: 
                TLS Web Server Authentication
    Signature Algorithm: sha1WithRSAEncryption
         ac:bc:52:c0:85:32:67:04:be:a2:64:54:ee:cb:19:6d:6f:47:
         ea:c6:5e:56:3e:91:b1:26:28:1e:dd:83:ac:78:c8:ea:94:d7:
         d0:99:ee:52:e4:01:fc:d2:9d:20:d0:47:b7:04:55:51:1e:fa:
         55:cf:e3:db:a3:f9:ac:93:c8:ac:68:b5:65:47:3d:a0:31:57:
         d6:f3:4a:20:e8:bd:f4:75:9a:f2:9c:d1:39:95:7b:01:ff:57:
         cb:e4:c9:38:af:87:3d:a9:95:ae:75:66:cf:de:24:06:55:35:
         99:8b:61:ff:a0:71:04:5b:78:db:a9:2c:b9:b6:e1:30:40:46:
         78:03:0c:99:6d:ab:5f:47:d0:f2:77:f5:10:f2:d7:d1:37:57:
         84:e9:2d:2d:27:42:28:d0:4b:e0:12:52:cc:94:d4:f0:da:17:
         24:92:c8:bb:ee:60:9d:f0:8a:a2:25:50:e9:06:96:06:37:68:
         e9:f8:e8:60:f0:c4:56:6c:de:4c:10:d6:47:51:6c:b0:16:f9:
         02:58:9c:cc:28:a2:b5:8e:13:d0:df:bb:9d:98:de:c6:95:4d:
         1d:ea:58:2a:1d:40:4c:77:26:9f:6a:41:9d:77:ea:26:ae:53:
         59:12:d3:1d:ea:6f:fe:2e:37:ff:3e:87:26:0e:10:3c:4c:7a:
         86:a7:17:90
-----BEGIN CERTIFICATE-----
MIIECTCCAvGgAwIBAgIEEAAA5zANBgkqhkiG9w0BAQUFADBEMQswCQYDVQQGEwJE
RTEPMA0GA1UECAwGSGVzc2VuMRQwEgYDVQQKDAtwcml2YWN5aWRlYTEOMAwGA1UE
AwwFQ0EwMDEwHhcNMTcwMjIzMTUyNTQ0WhcNMTgwMjIzMTUyNTQ0WjA3MRMwEQYD
VQQDDApTdGV2ZSBUZXN0MSAwHgYJKoZIhvcNAQkBFhFzdGV2ZUBvcGVuc3NsLm9y
ZzCCASIwDQYJKoZIhvcNAQEBBQADggEPADCCAQoCggEBANKBiSBRSA9z9BEyJNUf
HP1c9bbmxfBSgdzSr2ZKfJMxYVyv0W0GcANgfHIMiN1JzZ4CbNJa11MP89q+aWS1
DwwA47NQR6Ozm7oTUNZYWkurOeARygonZwN4ImZtkh4bXEmu5mvRjjudBtPGrE1T
QxCr6JbBh4KXmY8g05kSNzGE4Yr/KQNfIpA+f5vgIMGt3K5MORoxlhcCjLLZtA0g
Ept9hlT9M/3BKmJG+GCWz24BbyLfE0fnl+wFciOjYvj676yccvA3yy83z5CoJ1GG
xtd4CI9+JaIVcKL7HLYVXqCXi4FMCSiKJzuUvHHbW3E3misW4G+1yfVLTyC6Zc+v
ra0CAwEAAaOCAQ4wggEKMAsGA1UdDwQEAwIFoDAJBgNVHRMEAjAAMBEGCWCGSAGG
+EIBAQQEAwIGQDAzBglghkgBhvhCAQ0EJhYkT3BlblNTTCBHZW5lcmF0ZWQgU2Vy
dmVyIENlcnRpZmljYXRlMB0GA1UdDgQWBBTlJW0+rw3dP0zyRRk51RTbfpzArTB0
BgNVHSMEbTBrgBT0p8DMkUavZPOR8if4yLJviocyc6FIpEYwRDELMAkGA1UEBhMC
REUxDzANBgNVBAgMBkhlc3NlbjEUMBIGA1UECgwLcHJpdmFjeWlkZWExDjAMBgNV
BAMMBUNBMDAxggkA+8jrrIPNEgcwEwYDVR0lBAwwCgYIKwYBBQUHAwEwDQYJKoZI
hvcNAQEFBQADggEBAKy8UsCFMmcEvqJkVO7LGW1vR+rGXlY+kbEmKB7dg6x4yOqU
19CZ7lLkAfzSnSDQR7cEVVEe+lXP49uj+ayTyKxotWVHPaAxV9bzSiDovfR1mvKc
0TmVewH/V8vkyTivhz2pla51Zs/eJAZVNZmLYf+gcQRbeNupLLm24TBARngDDJlt
q19H0PJ39RDy19E3V4TpLS0nQijQS+ASUsyU1PDaFySSyLvuYJ3wiqIlUOkGlgY3
aOn46GDwxFZs3kwQ1kdRbLAW+QJYnMwoorWOE9Dfu52Y3saVTR3qWCodQEx3Jp9q
QZ136iauU1kS0x3qb/4uN/8+hyYOEDxMeoanF5A=
-----END CERTIFICATE-----
