Certificate:
    Data:
        Version: 3 (0x2)
        Serial Number: 268435683 (0x100000e3)
    Signature Algorithm: sha1WithRSAEncryption
        Issuer: C=DE, ST=Hessen, O=privacyidea, CN=CA001
        Validity
            Not Before: Feb 23 15:24:29 2017 GMT
            Not After : Feb 23 15:24:29 2018 GMT
        Subject: C=DE, ST=Hessen, O=privacyidea, CN=usercert
        Subject Public Key Info:
            Public Key Algorithm: rsaEncryption
                Public-Key: (2048 bit)
                Modulus:
                    00:dc:2f:d1:5f:29:97:d4:7c:c3:53:c8:30:bd:4b:
                    67:70:2c:24:6b:b8:5e:eb:21:7a:48:12:56:7c:81:
                    5c:48:75:b6:68:eb:f6:f2:98:4e:50:51:d1:7f:6c:
                    73:f3:0a:a7:ae:be:48:5e:e5:d6:e1:d9:2a:7c:32:
                    6e:4e:fd:08:f6:5a:54:49:23:73:c3:b9:07:18:d1:
                    ef:b3:ac:f8:8a:dc:94:96:a4:90:3a:8e:74:df:e6:
                    0d:37:1b:bd:5b:b7:25:1a:56:39:da:6f:91:aa:5e:
                    1c:74:f3:f9:7c:14:01:83:12:65:76:c7:bb:fe:36:
                    5b:95:e9:72:65:83:ed:3e:98:30:71:fa:87:dd:a3:
                    36:5a:30:03:2e:26:e0:61:d1:bf:02:3f:b6:06:1f:
                    4a:89:28:1c:5c:a2:ff:4e:be:94:e6:8c:e0:da:82:
                    f1:9d:29:32:48:30:73:b4:04:f6:42:1e:be:f7:e2:
                    32:32:27:3c:9d:89:2f:70:3e:85:9a:6f:5c:c5:09:
                    c0:8c:32:2f:72:22:c9:d2:95:1f:b6:ac:72:60:72:
                    b7:82:4d:6b:ce:5b:e3:00:d0:d2:2f:58:c6:e0:10:
                    e5:51:ca:4d:3b:2e:e6:7e:ab:84:d6:56:f1:93:35:
                    a0:93:64:26:81:75:2f:91:b5:16:06:38:0b:db:cc:
                    2d:07
                Exponent: 65537 (0x10001)
        X509v3 extensions:
            X509v3 Key Usage: 
                Digital Signature, Key Encipherment
            X509v3 Basic Constraints: 
                CA:FALSE
            Netscape Cert Type: 
                SSL Server
            Netscape Comment: 
                OpenSSL Generated Server Certificate
            X509v3 Subject Key Identifier: 
                FC:14:D1:F0:4B:8D:00:90:F2:F5:B8:71:9E:4E:97:C3:92:54:AD:0B
            X509v3 Authority Key Identifier: 
                keyid:F4:A7:C0:CC:91:46:AF:64:F3:91:F2:27:F8:C8:B2:6F:8A:87:32:73
                DirName:/C=DE/ST=Hessen/O=privacyidea/CN=CA001
                serial:FB:C8:EB:AC:83:CD:12:07

            X509v3 Extended Key Usage: 
                TLS Web Server Authentication
    Signature Algorithm: sha1WithRSAEncryption
         2c:2b:41:bb:81:61:9c:84:f8:92:bb:a4:22:33:e1:e5:ea:fe:
         51:56:83:07:25:2b:ee:f5:8f:c0:b8:3b:b6:32:c8:c2:f6:33:
         b4:bc:dd:90:ce:5f:d8:90:bc:5f:d1:cd:86:17:18:05:59:a0:
         1d:a5:90:cc:08:39:25:d3:08:6e:e7:c0:dd:76:9c:4b:cd:67:
         b2:f7:49:66:1b:af:54:1e:0e:67:b5:61:41:93:8e:9e:0e:11:
         4d:66:ab:28:d3:35:2f:b7:4b:d3:f7:a8:36:fb:28:62:de:2b:
         d0:1a:2d:d1:af:4b:3f:ba:76:96:61:2e:b4:7d:ee:1d:ec:da:
         a3:38:4d:ba:86:62:f1:4b:7b:fc:64:39:fe:de:d5:8c:12:42:
         77:cf:7c:89:c8:e7:1a:f4:34:d1:83:b0:d5:a0:19:26:46:51:
         6e:4f:df:ce:85:3e:5c:fa:87:8c:af:97:1e:6f:e9:d9:3a:3f:
         79:4f:ba:77:23:df:c0:0d:27:b2:50:cf:f2:aa:4c:6f:89:cf:
         05:c3:ee:84:2a:0e:0f:ce:86:f7:1f:74:2a:84:2e:a3:d9:01:
         7e:ff:ee:56:7b:12:1d:ad:d3:04:4f:8b:a9:81:64:99:1a:c2:
         1a:33:e4:82:e7:ec:ee:9f:62:60:8e:ed:4e:2e:ab:af:01:1d:
         bb:97:e8:6c
-----BEGIN CERTIFICATE-----
MIIEGTCCAwGgAwIBAgIEEAAA4zANBgkqhkiG9w0BAQUFADBEMQswCQYDVQQGEwJE
RTEPMA0GA1UECAwGSGVzc2VuMRQwEgYDVQQKDAtwcml2YWN5aWRlYTEOMAwGA1UE
AwwFQ0EwMDEwHhcNMTcwMjIzMTUyNDI5WhcNMTgwMjIzMTUyNDI5WjBHMQswCQYD
VQQGEwJERTEPMA0GA1UECAwGSGVzc2VuMRQwEgYDVQQKDAtwcml2YWN5aWRlYTER
MA8GA1UEAwwIdXNlcmNlcnQwggEiMA0GCSqGSIb3DQEBAQUAA4IBDwAwggEKAoIB
AQDcL9FfKZfUfMNTyDC9S2dwLCRruF7rIXpIElZ8gVxIdbZo6/bymE5QUdF/bHPz
Cqeuvkhe5dbh2Sp8Mm5O/Qj2WlRJI3PDuQcY0e+zrPiK3JSWpJA6jnTf5g03G71b
tyUaVjnab5GqXhx08/l8FAGDEmV2x7v+NluV6XJlg+0+mDBx+ofdozZaMAMuJuBh
0b8CP7YGH0qJKBxcov9OvpTmjODagvGdKTJIMHO0BPZCHr734jIyJzydiS9wPoWa
b1zFCcCMMi9yIsnSlR+2rHJgcreCTWvOW+MA0NIvWMbgEOVRyk07LuZ+q4TWVvGT
NaCTZCaBdS+RtRYGOAvbzC0HAgMBAAGjggEOMIIBCjALBgNVHQ8EBAMCBaAwCQYD
VR0TBAIwADARBglghkgBhvhCAQEEBAMCBkAwMwYJYIZIAYb4QgENBCYWJE9wZW5T
U0wgR2VuZXJhdGVkIFNlcnZlciBDZXJ0aWZpY2F0ZTAdBgNVHQ4EFgQU/BTR8EuN
AJDy9bhxnk6Xw5JUrQswdAYDVR0jBG0wa4AU9KfAzJFGr2TzkfIn+Miyb4qHMnOh
SKRGMEQxCzAJBgNVBAYTAkRFMQ8wDQYDVQQIDAZIZXNzZW4xFDASBgNVBAoMC3By
aXZhY3lpZGVhMQ4wDAYDVQQDDAVDQTAwMYIJAPvI66yDzRIHMBMGA1UdJQQMMAoG
CCsGAQUFBwMBMA0GCSqGSIb3DQEBBQUAA4IBAQAsK0G7gWGchPiSu6QiM+Hl6v5R
VoMHJSvu9Y/AuDu2MsjC9jO0vN2Qzl/YkLxf0c2GFxgFWaAdpZDMCDkl0whu58Dd
dpxLzWey90lmG69UHg5ntWFBk46eDhFNZqso0zUvt0vT96g2+yhi3ivQGi3Rr0s/
unaWYS60fe4d7NqjOE26hmLxS3v8ZDn+3tWMEkJ3z3yJyOca9DTRg7DVoBkmRlFu
T9/OhT5c+oeMr5ceb+nZOj95T7p3I9/ADSeyUM/yqkxvic8Fw+6EKg4Pzob3H3Qq
hC6j2QF+/+5WexIdrdMET4upgWSZGsIaM+SC5+zun2Jgju1OLquvAR27l+hs
-----END CERTIFICATE-----
