Certificate:
    Data:
        Version: 3 (0x2)
        Serial Number: 268435668 (0x100000d4)
    Signature Algorithm: sha256WithRSAEncryption
        Issuer: C=DE, ST=Hessen, O=privacyidea, CN=CA001
        Validity
            Not Before: Mar  9 08:43:47 2017 GMT
            Not After : Mar 29 08:43:47 2019 GMT
        Subject: CN=Steve Test/emailAddress=steve@openssl.org
        Subject Public Key Info:
            Public Key Algorithm: rsaEncryption
                Public-Key: (2048 bit)
                Modulus:
                    00:d2:81:89:20:51:48:0f:73:f4:11:32:24:d5:1f:
                    1c:fd:5c:f5:b6:e6:c5:f0:52:81:dc:d2:af:66:4a:
                    7c:93:31:61:5c:af:d1:6d:06:70:03:60:7c:72:0c:
                    88:dd:49:cd:9e:02:6c:d2:5a:d7:53:0f:f3:da:be:
                    69:64:b5:0f:0c:00:e3:b3:50:47:a3:b3:9b:ba:13:
                    50:d6:58:5a:4b:ab:39:e0:11:ca:0a:27:67:03:78:
                    22:66:6d:92:1e:1b:5c:49:ae:e6:6b:d1:8e:3b:9d:
                    06:d3:c6:ac:4d:53:43:10:ab:e8:96:c1:87:82:97:
                    99:8f:20:d3:99:12:37:31:84:e1:8a:ff:29:03:5f:
                    22:90:3e:7f:9b:e0:20:c1:ad:dc:ae:4c:39:1a:31:
                    96:17:02:8c:b2:d9:b4:0d:20:12:9b:7d:86:54:fd:
                    33:fd:c1:2a:62:46:f8:60:96:cf:6e:01:6f:22:df:
                    13:47:e7:97:ec:05:72:23:a3:62:f8:fa:ef:ac:9c:
                    72:f0:37:cb:2f:37:cf:90:a8:27:51:86:c6:d7:78:
                    08:8f:7e:25:a2:15:70:a2:fb:1c:b6:15:5e:a0:97:
                    8b:81:4c:09:28:8a:27:3b:94:bc:71:db:5b:71:37:
                    9a:2b:16:e0:6f:b5:c9:f5:4b:4f:20:ba:65:cf:af:
                    ad:ad
                Exponent: 65537 (0x10001)
        X509v3 extensions:
            X509v3 Key Usage: 
                Digital Signature, Key Encipherment
            X509v3 Basic Constraints: 
                CA:FALSE
            Netscape Cert Type: 
                SSL Server
            Netscape Comment: 
                OpenSSL Generated Server Certificate
            X509v3 Subject Key Identifier: 
                E5:25:6D:3E:AF:0D:DD:3F:4C:F2:45:19:39:D5:14:DB:7E:9C:C0:AD
            X509v3 Authority Key Identifier: 
                keyid:F4:A7:C0:CC:91:46:AF:64:F3:91:F2:27:F8:C8:B2:6F:8A:87:32:73
                DirName:/C=DE/ST=Hessen/O=privacyidea/CN=CA001
                serial:FB:C8:EB:AC:83:CD:12:07

            X509v3 Extended Key Usage: 
                TLS Web Server Authentication
    Signature Algorithm: sha256WithRSAEncryption
         8d:f9:d4:ef:0c:b3:6c:d4:8d:e0:d0:3a:6d:b8:51:c1:be:04:
         a6:e2:17:83:f9:0c:44:8e:39:aa:c1:40:b0:40:c5:9f:c2:13:
         a2:cb:3d:1b:11:d5:64:a2:73:c9:08:21:d6:83:b3:f5:c0:15:
         b8:2c:93:0b:af:e9:44:82:86:e6:8e:e0:6d:f8:f6:e0:ae:b5:
         8e:d0:f0:62:2a:2b:e5:6d:62:2a:23:f4:dc:56:48:8c:6e:9b:
         50:4e:6c:20:8c:08:8f:13:8b:4f:17:59:ef:cc:a1:f1:a7:24:
         c7:a2:50:55:7e:9b:ba:65:c9:84:f5:9b:df:bc:84:fe:cb:d4:
         0f:f7:82:61:8d:dd:ce:84:82:f0:ca:94:f7:d3:cd:07:a2:e9:
         82:8d:42:88:d6:b6:3e:02:a3:a4:c6:e1:07:ac:57:73:7c:e6:
         f2:b4:05:6e:f2:03:6f:a0:53:28:ff:8e:5c:e4:44:49:63:6a:
         9f:e9:8c:9c:e6:3b:ed:0a:20:7e:3c:9d:d0:e0:b2:52:92:ac:
         3b:be:e3:ed:0a:b7:da:90:17:06:b9:35:c1:2c:30:97:c5:48:
         4e:77:de:db:b0:9c:83:75:92:ed:90:5e:5e:ec:ca:7b:80:24:
         74:30:4f:8e:e5:a8:e8:77:2a:46:f7:e2:1b:aa:96:1a:77:62:
         68:b3:59:54
-----BEGIN CERTIFICATE-----
MIIECTCCAvGgAwIBAgIEEAAA1DANBgkqhkiG9w0BAQsFADBEMQswCQYDVQQGEwJE
RTEPMA0GA1UECAwGSGVzc2VuMRQwEgYDVQQKDAtwcml2YWN5aWRlYTEOMAwGA1UE
AwwFQ0EwMDEwHhcNMTcwMzA5MDg0MzQ3WhcNMTkwMzI5MDg0MzQ3WjA3MRMwEQYD
VQQDDApTdGV2ZSBUZXN0MSAwHgYJKoZIhvcNAQkBFhFzdGV2ZUBvcGVuc3NsLm9y
ZzCCASIwDQYJKoZIhvcNAQEBBQADggEPADCCAQoCggEBANKBiSBRSA9z9BEyJNUf
HP1c9bbmxfBSgdzSr2ZKfJMxYVyv0W0GcANgfHIMiN1JzZ4CbNJa11MP89q+aWS1
DwwA47NQR6Ozm7oTUNZYWkurOeARygonZwN4ImZtkh4bXEmu5mvRjjudBtPGrE1T
QxCr6JbBh4KXmY8g05kSNzGE4Yr/KQNfIpA+f5vgIMGt3K5MORoxlhcCjLLZtA0g
Ept9hlT9M/3BKmJG+GCWz24BbyLfE0fnl+wFciOjYvj676yccvA3yy83z5CoJ1GG
xtd4CI9+JaIVcKL7HLYVXqCXi4FMCSiKJzuUvHHbW3E3misW4G+1yfVLTyC6Zc+v
ra0CAwEAAaOCAQ4wggEKMAsGA1UdDwQEAwIFoDAJBgNVHRMEAjAAMBEGCWCGSAGG
+EIBAQQEAwIGQDAzBglghkgBhvhCAQ0EJhYkT3BlblNTTCBHZW5lcmF0ZWQgU2Vy
dmVyIENlcnRpZmljYXRlMB0GA1UdDgQWBBTlJW0+rw3dP0zyRRk51RTbfpzArTB0
BgNVHSMEbTBrgBT0p8DMkUavZPOR8if4yLJviocyc6FIpEYwRDELMAkGA1UEBhMC
REUxDzANBgNVBAgMBkhlc3NlbjEUMBIGA1UECgwLcHJpdmFjeWlkZWExDjAMBgNV
BAMMBUNBMDAxggkA+8jrrIPNEgcwEwYDVR0lBAwwCgYIKwYBBQUHAwEwDQYJKoZI
hvcNAQELBQADggEBAI351O8Ms2zUjeDQOm24UcG+BKbiF4P5DESOOarBQLBAxZ/C
E6LLPRsR1WSic8kIIdaDs/XAFbgskwuv6USChuaO4G349uCutY7Q8GIqK+VtYioj
9NxWSIxum1BObCCMCI8Ti08XWe/MofGnJMeiUFV+m7plyYT1m9+8hP7L1A/3gmGN
3c6EgvDKlPfTzQei6YKNQojWtj4Co6TG4QesV3N85vK0BW7yA2+gUyj/jlzkRElj
ap/pjJzmO+0KIH48ndDgslKSrDu+4+0Kt9qQFwa5NcEsMJfFSE533tuwnIN1ku2Q
Xl7synuAJHQwT47lqOh3Kkb34huqlhp3YmizWVQ=
-----END CERTIFICATE-----
