Certificate:
    Data:
        Version: 3 (0x2)
        Serial Number: 268435671 (0x100000d7)
    Signature Algorithm: sha256WithRSAEncryption
        Issuer: C=DE, ST=Hessen, O=privacyidea, CN=CA001
        Validity
            Not Before: Mar  9 08:55:25 2017 GMT
            Not After : Mar  9 08:55:25 2018 GMT
        Subject: CN=selfservice,CN=user,O=realm1/emailAddress=meine
        Subject Public Key Info:
            Public Key Algorithm: rsaEncryption
                Public-Key: (2048 bit)
                Modulus:
                    00:cf:3c:d4:33:0e:12:c4:e6:da:cd:b6:56:a1:1c:
                    26:bb:26:1c:8a:4a:73:a8:58:8a:b6:1e:b3:8b:99:
                    d2:1d:07:c2:92:89:79:c0:69:d8:c8:df:28:61:98:
                    1e:b3:fe:ae:2b:bd:78:a9:f7:6e:47:dc:a3:a0:16:
                    8c:85:02:c1:4e:92:fd:72:6e:f0:c8:03:29:9b:b8:
                    00:6e:c0:83:95:c8:34:20:36:9c:b3:e5:e4:e6:76:
                    73:a3:1a:ad:40:96:e0:53:54:00:ec:76:79:9a:c6:
                    0d:7e:b6:bd:29:ec:83:f3:cb:89:a4:cb:6c:00:ba:
                    0c:c5:78:0f:ff:69:b8:94:f4:04:70:43:3f:d8:9e:
                    d7:a7:fb:5d:ce:75:8e:da:e7:c4:07:b1:9d:de:6f:
                    88:4b:b6:4d:9a:cf:f9:bc:fa:9f:cd:32:6d:f6:3a:
                    0b:0d:23:42:78:ec:97:42:bf:0e:4d:60:56:e1:d3:
                    02:f2:19:cb:84:57:90:e5:70:a1:a2:83:35:86:e2:
                    da:86:9f:f9:8a:c4:79:b3:52:28:da:cb:bb:34:ca:
                    d3:da:91:4a:cf:8d:76:a2:b2:6b:9b:f9:96:fd:09:
                    2a:da:11:23:4d:f0:cb:d6:b2:b1:0e:12:6c:9a:19:
                    65:98:87:ca:e4:ee:24:ce:44:ac:90:8f:9d:1b:c5:
                    2a:9d
                Exponent: 65537 (0x10001)
        X509v3 extensions:
            X509v3 Key Usage: 
                Digital Signature, Key Encipherment
            X509v3 Basic Constraints: 
                CA:FALSE
            Netscape Cert Type: 
                SSL Server
            Netscape Comment: 
                OpenSSL Generated Server Certificate
            X509v3 Subject Key Identifier: 
                4D:07:90:AD:FF:1D:0D:E7:1A:DD:D6:2E:FA:BA:34:CB:AA:1F:24:C6
            X509v3 Authority Key Identifier: 
                keyid:F4:A7:C0:CC:91:46:AF:64:F3:91:F2:27:F8:C8:B2:6F:8A:87:32:73
                DirName:/C=DE/ST=Hessen/O=privacyidea/CN=CA001
                serial:FB:C8:EB:AC:83:CD:12:07

            X509v3 Extended Key Usage: 
                TLS Web Server Authentication
    Signature Algorithm: sha256WithRSAEncryption
         bf:ab:53:d0:67:4f:9a:21:ef:ad:89:c3:dc:ed:13:36:0f:bc:
         ba:8a:68:3b:8c:67:08:92:bc:1c:52:66:6b:f4:af:30:ab:b8:
         f4:f5:e4:c7:74:a4:7d:bd:6f:41:2a:fa:d6:4d:af:a1:d9:57:
         21:35:1b:f8:e0:4e:70:8e:0c:9a:43:10:46:e4:b9:2c:ed:25:
         57:e6:b7:c8:e8:77:ad:39:9f:52:7d:a3:1a:23:a5:c4:f6:45:
         3c:2a:74:20:df:4d:28:db:2c:7c:86:d8:b5:c5:ba:b2:27:86:
         a8:56:ef:7c:97:1c:8e:60:22:3f:0d:1d:16:b3:79:a2:f9:11:
         70:76:89:1e:58:37:e2:86:e8:4f:d6:a0:05:03:48:37:c2:95:
         42:a8:67:64:4e:a4:a9:dc:1e:16:ba:0b:d3:8f:0d:f2:c4:db:
         31:8c:fe:55:1f:b4:f8:7c:03:48:54:e5:3e:b6:c1:0b:6f:cf:
         2f:39:43:8e:57:93:5d:50:bf:76:7d:a9:7a:a7:79:e3:a9:ca:
         10:f4:ec:e0:d7:e8:62:97:62:99:ed:56:d7:5c:82:a0:fa:eb:
         7d:f4:bb:74:59:97:da:1b:55:dd:a9:e7:61:a6:77:6c:83:5f:
         24:fe:8c:03:0a:53:5e:b1:de:c5:94:d7:92:d9:ac:fd:1c:1f:
         73:b6:fb:d4
-----BEGIN CERTIFICATE-----
MIIEDzCCAvegAwIBAgIEEAAA1zANBgkqhkiG9w0BAQsFADBEMQswCQYDVQQGEwJE
RTEPMA0GA1UECAwGSGVzc2VuMRQwEgYDVQQKDAtwcml2YWN5aWRlYTEOMAwGA1UE
AwwFQ0EwMDEwHhcNMTcwMzA5MDg1NTI1WhcNMTgwMzA5MDg1NTI1WjA9MSUwIwYD
VQQDDBxzZWxmc2VydmljZSxDTj11c2VyLE89cmVhbG0xMRQwEgYJKoZIhvcNAQkB
FgVtZWluZTCCASIwDQYJKoZIhvcNAQEBBQADggEPADCCAQoCggEBAM881DMOEsTm
2s22VqEcJrsmHIpKc6hYirYes4uZ0h0HwpKJecBp2MjfKGGYHrP+riu9eKn3bkfc
o6AWjIUCwU6S/XJu8MgDKZu4AG7Ag5XINCA2nLPl5OZ2c6MarUCW4FNUAOx2eZrG
DX62vSnsg/PLiaTLbAC6DMV4D/9puJT0BHBDP9ie16f7Xc51jtrnxAexnd5viEu2
TZrP+bz6n80ybfY6Cw0jQnjsl0K/Dk1gVuHTAvIZy4RXkOVwoaKDNYbi2oaf+YrE
ebNSKNrLuzTK09qRSs+NdqKya5v5lv0JKtoRI03wy9aysQ4SbJoZZZiHyuTuJM5E
rJCPnRvFKp0CAwEAAaOCAQ4wggEKMAsGA1UdDwQEAwIFoDAJBgNVHRMEAjAAMBEG
CWCGSAGG+EIBAQQEAwIGQDAzBglghkgBhvhCAQ0EJhYkT3BlblNTTCBHZW5lcmF0
ZWQgU2VydmVyIENlcnRpZmljYXRlMB0GA1UdDgQWBBRNB5Ct/x0N5xrd1i76ujTL
qh8kxjB0BgNVHSMEbTBrgBT0p8DMkUavZPOR8if4yLJviocyc6FIpEYwRDELMAkG
A1UEBhMCREUxDzANBgNVBAgMBkhlc3NlbjEUMBIGA1UECgwLcHJpdmFjeWlkZWEx
DjAMBgNVBAMMBUNBMDAxggkA+8jrrIPNEgcwEwYDVR0lBAwwCgYIKwYBBQUHAwEw
DQYJKoZIhvcNAQELBQADggEBAL+rU9BnT5oh762Jw9ztEzYPvLqKaDuMZwiSvBxS
Zmv0rzCruPT15Md0pH29b0Eq+tZNr6HZVyE1G/jgTnCODJpDEEbkuSztJVfmt8jo
d605n1J9oxojpcT2RTwqdCDfTSjbLHyG2LXFurInhqhW73yXHI5gIj8NHRazeaL5
EXB2iR5YN+KG6E/WoAUDSDfClUKoZ2ROpKncHha6C9OPDfLE2zGM/lUftPh8A0hU
5T62wQtvzy85Q45Xk11Qv3Z9qXqneeOpyhD07ODX6GKXYpntVtdcgqD66330u3RZ
l9obVd2p52Gmd2yDXyT+jAMKU16x3sWU15LZrP0cH3O2+9Q=
-----END CERTIFICATE-----
