Certificate:
    Data:
        Version: 3 (0x2)
        Serial Number: 268435674 (0x100000da)
    Signature Algorithm: sha256WithRSAEncryption
        Issuer: C=DE, ST=Hessen, O=privacyidea, CN=CA001
        Validity
            Not Before: Feb 25 00:40:31 2017 GMT
            Not After : Mar 17 00:40:31 2019 GMT
        Subject: CN=Steve Test/emailAddress=steve@openssl.org
        Subject Public Key Info:
            Public Key Algorithm: rsaEncryption
                Public-Key: (2048 bit)
                Modulus:
                    00:d2:81:89:20:51:48:0f:73:f4:11:32:24:d5:1f:
                    1c:fd:5c:f5:b6:e6:c5:f0:52:81:dc:d2:af:66:4a:
                    7c:93:31:61:5c:af:d1:6d:06:70:03:60:7c:72:0c:
                    88:dd:49:cd:9e:02:6c:d2:5a:d7:53:0f:f3:da:be:
                    69:64:b5:0f:0c:00:e3:b3:50:47:a3:b3:9b:ba:13:
                    50:d6:58:5a:4b:ab:39:e0:11:ca:0a:27:67:03:78:
                    22:66:6d:92:1e:1b:5c:49:ae:e6:6b:d1:8e:3b:9d:
                    06:d3:c6:ac:4d:53:43:10:ab:e8:96:c1:87:82:97:
                    99:8f:20:d3:99:12:37:31:84:e1:8a:ff:29:03:5f:
                    22:90:3e:7f:9b:e0:20:c1:ad:dc:ae:4c:39:1a:31:
                    96:17:02:8c:b2:d9:b4:0d:20:12:9b:7d:86:54:fd:
                    33:fd:c1:2a:62:46:f8:60:96:cf:6e:01:6f:22:df:
                    13:47:e7:97:ec:05:72:23:a3:62:f8:fa:ef:ac:9c:
                    72:f0:37:cb:2f:37:cf:90:a8:27:51:86:c6:d7:78:
                    08:8f:7e:25:a2:15:70:a2:fb:1c:b6:15:5e:a0:97:
                    8b:81:4c:09:28:8a:27:3b:94:bc:71:db:5b:71:37:
                    9a:2b:16:e0:6f:b5:c9:f5:4b:4f:20:ba:65:cf:af:
                    ad:ad
                Exponent: 65537 (0x10001)
        X509v3 extensions:
            X509v3 Key Usage: 
                Digital Signature, Key Encipherment
            X509v3 Basic Constraints: 
                CA:FALSE
            Netscape Cert Type: 
                SSL Server
            Netscape Comment: 
                OpenSSL Generated Server Certificate
            X509v3 Subject Key Identifier: 
                E5:25:6D:3E:AF:0D:DD:3F:4C:F2:45:19:39:D5:14:DB:7E:9C:C0:AD
            X509v3 Authority Key Identifier: 
                keyid:F4:A7:C0:CC:91:46:AF:64:F3:91:F2:27:F8:C8:B2:6F:8A:87:32:73
                DirName:/C=DE/ST=Hessen/O=privacyidea/CN=CA001
                serial:FB:C8:EB:AC:83:CD:12:07

            X509v3 Extended Key Usage: 
                TLS Web Server Authentication
    Signature Algorithm: sha256WithRSAEncryption
         46:34:ab:f1:7e:00:e2:77:01:b7:1c:eb:92:ea:48:f7:ff:ec:
         26:86:2c:cf:ad:ef:f0:99:31:a8:2f:46:8c:00:4c:55:01:ad:
         e1:aa:a0:6c:e9:f7:60:f3:9e:ae:06:98:ef:9c:c4:41:9f:60:
         4f:b0:d0:8e:33:db:38:14:e1:35:a6:9d:c3:0e:a4:b1:06:17:
         83:77:22:05:a4:7c:97:14:e3:43:63:0a:6d:92:8e:5d:dd:de:
         f6:15:48:0f:09:bf:bb:79:85:99:28:c9:32:2e:cc:42:4e:9b:
         e9:64:a0:6e:44:ee:59:96:df:74:f7:4e:ae:fb:66:bd:5c:5e:
         f3:ae:35:80:c2:97:cb:d2:09:6d:8a:85:f9:7d:0d:46:1b:02:
         34:d6:e5:07:0f:83:4c:11:5f:a3:53:17:33:9c:c6:1f:0b:df:
         fa:60:4c:f2:a0:01:6b:88:c3:fe:12:82:95:65:bb:fa:71:2d:
         9a:5a:06:d8:31:8d:33:eb:fd:96:c9:02:9c:ba:71:4b:2f:1b:
         45:ab:53:ac:45:e0:3a:47:7d:c5:7f:ff:cf:ea:75:9a:91:4d:
         fc:5e:1f:b0:43:d2:6e:04:d5:4b:3e:a8:76:07:42:82:33:72:
         f0:8a:56:2e:80:6a:06:3b:ad:58:a3:33:6c:c3:6d:53:07:bb:
         a2:c6:c9:8f
-----BEGIN CERTIFICATE-----
MIIECTCCAvGgAwIBAgIEEAAA2jANBgkqhkiG9w0BAQsFADBEMQswCQYDVQQGEwJE
RTEPMA0GA1UECAwGSGVzc2VuMRQwEgYDVQQKDAtwcml2YWN5aWRlYTEOMAwGA1UE
AwwFQ0EwMDEwHhcNMTcwMjI1MDA0MDMxWhcNMTkwMzE3MDA0MDMxWjA3MRMwEQYD
VQQDDApTdGV2ZSBUZXN0MSAwHgYJKoZIhvcNAQkBFhFzdGV2ZUBvcGVuc3NsLm9y
ZzCCASIwDQYJKoZIhvcNAQEBBQADggEPADCCAQoCggEBANKBiSBRSA9z9BEyJNUf
HP1c9bbmxfBSgdzSr2ZKfJMxYVyv0W0GcANgfHIMiN1JzZ4CbNJa11MP89q+aWS1
DwwA47NQR6Ozm7oTUNZYWkurOeARygonZwN4ImZtkh4bXEmu5mvRjjudBtPGrE1T
QxCr6JbBh4KXmY8g05kSNzGE4Yr/KQNfIpA+f5vgIMGt3K5MORoxlhcCjLLZtA0g
Ept9hlT9M/3BKmJG+GCWz24BbyLfE0fnl+wFciOjYvj676yccvA3yy83z5CoJ1GG
xtd4CI9+JaIVcKL7HLYVXqCXi4FMCSiKJzuUvHHbW3E3misW4G+1yfVLTyC6Zc+v
ra0CAwEAAaOCAQ4wggEKMAsGA1UdDwQEAwIFoDAJBgNVHRMEAjAAMBEGCWCGSAGG
+EIBAQQEAwIGQDAzBglghkgBhvhCAQ0EJhYkT3BlblNTTCBHZW5lcmF0ZWQgU2Vy
dmVyIENlcnRpZmljYXRlMB0GA1UdDgQWBBTlJW0+rw3dP0zyRRk51RTbfpzArTB0
BgNVHSMEbTBrgBT0p8DMkUavZPOR8if4yLJviocyc6FIpEYwRDELMAkGA1UEBhMC
REUxDzANBgNVBAgMBkhlc3NlbjEUMBIGA1UECgwLcHJpdmFjeWlkZWExDjAMBgNV
BAMMBUNBMDAxggkA+8jrrIPNEgcwEwYDVR0lBAwwCgYIKwYBBQUHAwEwDQYJKoZI
hvcNAQELBQADggEBAEY0q/F+AOJ3Abcc65LqSPf/7CaGLM+t7/CZMagvRowATFUB
reGqoGzp92Dznq4GmO+cxEGfYE+w0I4z2zgU4TWmncMOpLEGF4N3IgWkfJcU40Nj
Cm2Sjl3d3vYVSA8Jv7t5hZkoyTIuzEJOm+lkoG5E7lmW33T3Tq77Zr1cXvOuNYDC
l8vSCW2Khfl9DUYbAjTW5QcPg0wRX6NTFzOcxh8L3/pgTPKgAWuIw/4SgpVlu/px
LZpaBtgxjTPr/ZbJApy6cUsvG0WrU6xF4DpHfcV//8/qdZqRTfxeH7BD0m4E1Us+
qHYHQoIzcvCKVi6AagY7rVijM2zDbVMHu6LGyY8=
-----END CERTIFICATE-----
