Certificate:
    Data:
        Version: 3 (0x2)
        Serial Number: 268435676 (0x100000dc)
    Signature Algorithm: sha256WithRSAEncryption
        Issuer: C=DE, ST=Hessen, O=privacyidea, CN=CA001
        Validity
            Not Before: Feb 25 00:44:21 2017 GMT
            Not After : Feb 25 00:44:21 2018 GMT
        Subject: C=DE, ST=Hessen, O=privacyidea, CN=usercert
        Subject Public Key Info:
            Public Key Algorithm: rsaEncryption
                Public-Key: (2048 bit)
                Modulus:
                    00:dc:2f:d1:5f:29:97:d4:7c:c3:53:c8:30:bd:4b:
                    67:70:2c:24:6b:b8:5e:eb:21:7a:48:12:56:7c:81:
                    5c:48:75:b6:68:eb:f6:f2:98:4e:50:51:d1:7f:6c:
                    73:f3:0a:a7:ae:be:48:5e:e5:d6:e1:d9:2a:7c:32:
                    6e:4e:fd:08:f6:5a:54:49:23:73:c3:b9:07:18:d1:
                    ef:b3:ac:f8:8a:dc:94:96:a4:90:3a:8e:74:df:e6:
                    0d:37:1b:bd:5b:b7:25:1a:56:39:da:6f:91:aa:5e:
                    1c:74:f3:f9:7c:14:01:83:12:65:76:c7:bb:fe:36:
                    5b:95:e9:72:65:83:ed:3e:98:30:71:fa:87:dd:a3:
                    36:5a:30:03:2e:26:e0:61:d1:bf:02:3f:b6:06:1f:
                    4a:89:28:1c:5c:a2:ff:4e:be:94:e6:8c:e0:da:82:
                    f1:9d:29:32:48:30:73:b4:04:f6:42:1e:be:f7:e2:
                    32:32:27:3c:9d:89:2f:70:3e:85:9a:6f:5c:c5:09:
                    c0:8c:32:2f:72:22:c9:d2:95:1f:b6:ac:72:60:72:
                    b7:82:4d:6b:ce:5b:e3:00:d0:d2:2f:58:c6:e0:10:
                    e5:51:ca:4d:3b:2e:e6:7e:ab:84:d6:56:f1:93:35:
                    a0:93:64:26:81:75:2f:91:b5:16:06:38:0b:db:cc:
                    2d:07
                Exponent: 65537 (0x10001)
        X509v3 extensions:
            X509v3 Key Usage: 
                Digital Signature, Key Encipherment
            X509v3 Basic Constraints: 
                CA:FALSE
            Netscape Cert Type: 
                SSL Server
            Netscape Comment: 
                OpenSSL Generated Server Certificate
            X509v3 Subject Key Identifier: 
                FC:14:D1:F0:4B:8D:00:90:F2:F5:B8:71:9E:4E:97:C3:92:54:AD:0B
            X509v3 Authority Key Identifier: 
                keyid:F4:A7:C0:CC:91:46:AF:64:F3:91:F2:27:F8:C8:B2:6F:8A:87:32:73
                DirName:/C=DE/ST=Hessen/O=privacyidea/CN=CA001
                serial:FB:C8:EB:AC:83:CD:12:07

            X509v3 Extended Key Usage: 
                TLS Web Server Authentication
    Signature Algorithm: sha256WithRSAEncryption
         07:97:16:74:c8:8e:ab:81:20:f7:3b:90:d1:e7:71:4e:27:63:
         d8:5f:31:14:08:e0:a3:89:2d:1e:b5:ef:fc:da:91:0f:66:7f:
         62:6b:6b:66:e6:b0:75:95:aa:27:a0:c6:a4:64:e3:b4:70:7a:
         6c:0c:d3:af:22:31:09:33:88:27:ac:15:c3:ca:bf:9b:9b:dc:
         c4:35:8a:6e:ec:85:80:36:38:eb:bd:f7:1c:24:9c:25:30:03:
         09:b5:72:63:a7:02:37:1f:a0:d7:f3:b7:54:7e:94:1c:0c:7b:
         11:1b:34:43:a7:5f:f3:d6:73:f2:1a:85:ea:5e:57:89:65:22:
         96:8d:37:ca:bd:50:40:e3:ee:58:24:77:3e:2f:0e:a0:98:35:
         cb:07:25:b8:a8:d9:9d:4b:7c:85:92:3e:59:79:6a:a7:19:8a:
         f9:da:66:16:94:7d:bc:d9:1d:68:a6:05:d5:48:1b:9b:62:31:
         7b:93:d7:14:39:7b:90:c1:5f:8b:03:e1:82:b1:6e:30:53:e1:
         a3:f3:1b:3e:df:5b:32:f6:0c:1f:48:13:e2:60:99:fe:00:65:
         cb:0a:6d:5d:7b:23:75:95:01:93:a6:f9:b5:61:5f:aa:c0:e4:
         00:ec:af:18:0d:cc:56:c8:65:4c:c4:db:4a:aa:00:00:8a:de:
         c7:e6:4f:de
-----BEGIN CERTIFICATE-----
MIIEGTCCAwGgAwIBAgIEEAAA3DANBgkqhkiG9w0BAQsFADBEMQswCQYDVQQGEwJE
RTEPMA0GA1UECAwGSGVzc2VuMRQwEgYDVQQKDAtwcml2YWN5aWRlYTEOMAwGA1UE
AwwFQ0EwMDEwHhcNMTcwMjI1MDA0NDIxWhcNMTgwMjI1MDA0NDIxWjBHMQswCQYD
VQQGEwJERTEPMA0GA1UECAwGSGVzc2VuMRQwEgYDVQQKDAtwcml2YWN5aWRlYTER
MA8GA1UEAwwIdXNlcmNlcnQwggEiMA0GCSqGSIb3DQEBAQUAA4IBDwAwggEKAoIB
AQDcL9FfKZfUfMNTyDC9S2dwLCRruF7rIXpIElZ8gVxIdbZo6/bymE5QUdF/bHPz
Cqeuvkhe5dbh2Sp8Mm5O/Qj2WlRJI3PDuQcY0e+zrPiK3JSWpJA6jnTf5g03G71b
tyUaVjnab5GqXhx08/l8FAGDEmV2x7v+NluV6XJlg+0+mDBx+ofdozZaMAMuJuBh
0b8CP7YGH0qJKBxcov9OvpTmjODagvGdKTJIMHO0BPZCHr734jIyJzydiS9wPoWa
b1zFCcCMMi9yIsnSlR+2rHJgcreCTWvOW+MA0NIvWMbgEOVRyk07LuZ+q4TWVvGT
NaCTZCaBdS+RtRYGOAvbzC0HAgMBAAGjggEOMIIBCjALBgNVHQ8EBAMCBaAwCQYD
VR0TBAIwADARBglghkgBhvhCAQEEBAMCBkAwMwYJYIZIAYb4QgENBCYWJE9wZW5T
U0wgR2VuZXJhdGVkIFNlcnZlciBDZXJ0aWZpY2F0ZTAdBgNVHQ4EFgQU/BTR8EuN
AJDy9bhxnk6Xw5JUrQswdAYDVR0jBG0wa4AU9KfAzJFGr2TzkfIn+Miyb4qHMnOh
SKRGMEQxCzAJBgNVBAYTAkRFMQ8wDQYDVQQIDAZIZXNzZW4xFDASBgNVBAoMC3By
aXZhY3lpZGVhMQ4wDAYDVQQDDAVDQTAwMYIJAPvI66yDzRIHMBMGA1UdJQQMMAoG
CCsGAQUFBwMBMA0GCSqGSIb3DQEBCwUAA4IBAQAHlxZ0yI6rgSD3O5DR53FOJ2PY
XzEUCOCjiS0ete/82pEPZn9ia2tm5rB1laonoMakZOO0cHpsDNOvIjEJM4gnrBXD
yr+bm9zENYpu7IWANjjrvfccJJwlMAMJtXJjpwI3H6DX87dUfpQcDHsRGzRDp1/z
1nPyGoXqXleJZSKWjTfKvVBA4+5YJHc+Lw6gmDXLByW4qNmdS3yFkj5ZeWqnGYr5
2mYWlH282R1opgXVSBubYjF7k9cUOXuQwV+LA+GCsW4wU+Gj8xs+31sy9gwfSBPi
YJn+AGXLCm1deyN1lQGTpvm1YV+qwOQA7K8YDcxWyGVMxNtKqgAAit7H5k/e
-----END CERTIFICATE-----
