Certificate:
    Data:
        Version: 3 (0x2)
        Serial Number: 268435678 (0x100000de)
    Signature Algorithm: sha256WithRSAEncryption
        Issuer: C=DE, ST=Hessen, O=privacyidea, CN=CA001
        Validity
            Not Before: Feb 25 00:44:25 2017 GMT
            Not After : Mar 17 00:44:25 2019 GMT
        Subject: CN=Steve Test/emailAddress=steve@openssl.org
        Subject Public Key Info:
            Public Key Algorithm: rsaEncryption
                Public-Key: (2048 bit)
                Modulus:
                    00:d2:81:89:20:51:48:0f:73:f4:11:32:24:d5:1f:
                    1c:fd:5c:f5:b6:e6:c5:f0:52:81:dc:d2:af:66:4a:
                    7c:93:31:61:5c:af:d1:6d:06:70:03:60:7c:72:0c:
                    88:dd:49:cd:9e:02:6c:d2:5a:d7:53:0f:f3:da:be:
                    69:64:b5:0f:0c:00:e3:b3:50:47:a3:b3:9b:ba:13:
                    50:d6:58:5a:4b:ab:39:e0:11:ca:0a:27:67:03:78:
                    22:66:6d:92:1e:1b:5c:49:ae:e6:6b:d1:8e:3b:9d:
                    06:d3:c6:ac:4d:53:43:10:ab:e8:96:c1:87:82:97:
                    99:8f:20:d3:99:12:37:31:84:e1:8a:ff:29:03:5f:
                    22:90:3e:7f:9b:e0:20:c1:ad:dc:ae:4c:39:1a:31:
                    96:17:02:8c:b2:d9:b4:0d:20:12:9b:7d:86:54:fd:
                    33:fd:c1:2a:62:46:f8:60:96:cf:6e:01:6f:22:df:
                    13:47:e7:97:ec:05:72:23:a3:62:f8:fa:ef:ac:9c:
                    72:f0:37:cb:2f:37:cf:90:a8:27:51:86:c6:d7:78:
                    08:8f:7e:25:a2:15:70:a2:fb:1c:b6:15:5e:a0:97:
                    8b:81:4c:09:28:8a:27:3b:94:bc:71:db:5b:71:37:
                    9a:2b:16:e0:6f:b5:c9:f5:4b:4f:20:ba:65:cf:af:
                    ad:ad
                Exponent: 65537 (0x10001)
        X509v3 extensions:
            X509v3 Key Usage: 
                Digital Signature, Key Encipherment
            X509v3 Basic Constraints: 
                CA:FALSE
            Netscape Cert Type: 
                SSL Server
            Netscape Comment: 
                OpenSSL Generated Server Certificate
            X509v3 Subject Key Identifier: 
                E5:25:6D:3E:AF:0D:DD:3F:4C:F2:45:19:39:D5:14:DB:7E:9C:C0:AD
            X509v3 Authority Key Identifier: 
                keyid:F4:A7:C0:CC:91:46:AF:64:F3:91:F2:27:F8:C8:B2:6F:8A:87:32:73
                DirName:/C=DE/ST=Hessen/O=privacyidea/CN=CA001
                serial:FB:C8:EB:AC:83:CD:12:07

            X509v3 Extended Key Usage: 
                TLS Web Server Authentication
    Signature Algorithm: sha256WithRSAEncryption
         11:31:4f:c7:32:f6:d6:30:f4:08:ff:6f:42:f9:86:1b:49:d9:
         9c:3d:a6:3b:3c:b2:6e:48:2c:48:8f:27:2e:eb:02:c3:58:49:
         dd:83:62:e6:33:e2:b9:af:64:8d:51:34:7b:1b:88:d3:01:a8:
         22:63:bc:1d:d9:8f:91:9e:64:ad:57:cb:cf:ef:bc:ab:d4:f4:
         14:42:b9:cb:d9:b4:1d:75:1b:ab:0a:ad:81:ac:1f:b7:2e:c9:
         a1:30:75:b5:b8:4d:e2:6d:0d:e3:12:04:51:83:7a:6f:38:96:
         3b:85:6f:16:b9:31:c6:6d:c2:e8:80:2e:16:1d:95:61:0a:e0:
         1d:84:e4:c6:7b:31:bd:b7:d6:e4:29:0e:c4:0d:7f:32:6c:c5:
         0d:25:91:06:8e:22:ba:ef:0d:a1:94:4f:89:da:a1:1f:5c:4d:
         06:19:0d:3c:c8:d5:1a:5a:92:a2:58:cd:99:67:ed:c1:73:ff:
         ea:77:bb:fb:18:67:ba:4c:5b:de:90:43:e4:7f:72:1b:42:8c:
         7c:d8:81:f6:c3:77:7e:1b:dc:cf:0d:20:9a:1e:e1:e9:2b:d1:
         74:d3:c9:82:09:ba:ce:27:14:99:b1:7e:bb:c9:16:d2:3b:b1:
         b0:3c:83:1f:78:82:64:16:63:33:29:3e:e2:e0:bb:18:82:b4:
         7a:4f:8d:16
-----BEGIN CERTIFICATE-----
MIIECTCCAvGgAwIBAgIEEAAA3jANBgkqhkiG9w0BAQsFADBEMQswCQYDVQQGEwJE
RTEPMA0GA1UECAwGSGVzc2VuMRQwEgYDVQQKDAtwcml2YWN5aWRlYTEOMAwGA1UE
AwwFQ0EwMDEwHhcNMTcwMjI1MDA0NDI1WhcNMTkwMzE3MDA0NDI1WjA3MRMwEQYD
VQQDDApTdGV2ZSBUZXN0MSAwHgYJKoZIhvcNAQkBFhFzdGV2ZUBvcGVuc3NsLm9y
ZzCCASIwDQYJKoZIhvcNAQEBBQADggEPADCCAQoCggEBANKBiSBRSA9z9BEyJNUf
HP1c9bbmxfBSgdzSr2ZKfJMxYVyv0W0GcANgfHIMiN1JzZ4CbNJa11MP89q+aWS1
DwwA47NQR6Ozm7oTUNZYWkurOeARygonZwN4ImZtkh4bXEmu5mvRjjudBtPGrE1T
QxCr6JbBh4KXmY8g05kSNzGE4Yr/KQNfIpA+f5vgIMGt3K5MORoxlhcCjLLZtA0g
Ept9hlT9M/3BKmJG+GCWz24BbyLfE0fnl+wFciOjYvj676yccvA3yy83z5CoJ1GG
xtd4CI9+JaIVcKL7HLYVXqCXi4FMCSiKJzuUvHHbW3E3misW4G+1yfVLTyC6Zc+v
ra0CAwEAAaOCAQ4wggEKMAsGA1UdDwQEAwIFoDAJBgNVHRMEAjAAMBEGCWCGSAGG
+EIBAQQEAwIGQDAzBglghkgBhvhCAQ0EJhYkT3BlblNTTCBHZW5lcmF0ZWQgU2Vy
dmVyIENlcnRpZmljYXRlMB0GA1UdDgQWBBTlJW0+rw3dP0zyRRk51RTbfpzArTB0
BgNVHSMEbTBrgBT0p8DMkUavZPOR8if4yLJviocyc6FIpEYwRDELMAkGA1UEBhMC
REUxDzANBgNVBAgMBkhlc3NlbjEUMBIGA1UECgwLcHJpdmFjeWlkZWExDjAMBgNV
BAMMBUNBMDAxggkA+8jrrIPNEgcwEwYDVR0lBAwwCgYIKwYBBQUHAwEwDQYJKoZI
hvcNAQELBQADggEBABExT8cy9tYw9Aj/b0L5hhtJ2Zw9pjs8sm5ILEiPJy7rAsNY
Sd2DYuYz4rmvZI1RNHsbiNMBqCJjvB3Zj5GeZK1Xy8/vvKvU9BRCucvZtB11G6sK
rYGsH7cuyaEwdbW4TeJtDeMSBFGDem84ljuFbxa5McZtwuiALhYdlWEK4B2E5MZ7
Mb231uQpDsQNfzJsxQ0lkQaOIrrvDaGUT4naoR9cTQYZDTzI1RpakqJYzZln7cFz
/+p3u/sYZ7pMW96QQ+R/chtCjHzYgfbDd34b3M8NIJoe4ekr0XTTyYIJus4nFJmx
frvJFtI7sbA8gx94gmQWYzMpPuLguxiCtHpPjRY=
-----END CERTIFICATE-----
