Certificate:
    Data:
        Version: 3 (0x2)
        Serial Number: 268435673 (0x100000d9)
    Signature Algorithm: sha256WithRSAEncryption
        Issuer: C=DE, ST=Hessen, O=privacyidea, CN=CA001
        Validity
            Not Before: Feb 25 00:40:29 2017 GMT
            Not After : Feb 25 00:40:29 2018 GMT
        Subject: CN=Steve Test/emailAddress=steve@openssl.org
        Subject Public Key Info:
            Public Key Algorithm: rsaEncryption
                Public-Key: (2048 bit)
                Modulus:
                    00:d2:81:89:20:51:48:0f:73:f4:11:32:24:d5:1f:
                    1c:fd:5c:f5:b6:e6:c5:f0:52:81:dc:d2:af:66:4a:
                    7c:93:31:61:5c:af:d1:6d:06:70:03:60:7c:72:0c:
                    88:dd:49:cd:9e:02:6c:d2:5a:d7:53:0f:f3:da:be:
                    69:64:b5:0f:0c:00:e3:b3:50:47:a3:b3:9b:ba:13:
                    50:d6:58:5a:4b:ab:39:e0:11:ca:0a:27:67:03:78:
                    22:66:6d:92:1e:1b:5c:49:ae:e6:6b:d1:8e:3b:9d:
                    06:d3:c6:ac:4d:53:43:10:ab:e8:96:c1:87:82:97:
                    99:8f:20:d3:99:12:37:31:84:e1:8a:ff:29:03:5f:
                    22:90:3e:7f:9b:e0:20:c1:ad:dc:ae:4c:39:1a:31:
                    96:17:02:8c:b2:d9:b4:0d:20:12:9b:7d:86:54:fd:
                    33:fd:c1:2a:62:46:f8:60:96:cf:6e:01:6f:22:df:
                    13:47:e7:97:ec:05:72:23:a3:62:f8:fa:ef:ac:9c:
                    72:f0:37:cb:2f:37:cf:90:a8:27:51:86:c6:d7:78:
                    08:8f:7e:25:a2:15:70:a2:fb:1c:b6:15:5e:a0:97:
                    8b:81:4c:09:28:8a:27:3b:94:bc:71:db:5b:71:37:
                    9a:2b:16:e0:6f:b5:c9:f5:4b:4f:20:ba:65:cf:af:
                    ad:ad
                Exponent: 65537 (0x10001)
        X509v3 extensions:
            X509v3 Key Usage: 
                Digital Signature, Key Encipherment
            X509v3 Basic Constraints: 
                CA:FALSE
            Netscape Cert Type: 
                SSL Server
            Netscape Comment: 
                OpenSSL Generated Server Certificate
            X509v3 Subject Key Identifier: 
                E5:25:6D:3E:AF:0D:DD:3F:4C:F2:45:19:39:D5:14:DB:7E:9C:C0:AD
            X509v3 Authority Key Identifier: 
                keyid:F4:A7:C0:CC:91:46:AF:64:F3:91:F2:27:F8:C8:B2:6F:8A:87:32:73
                DirName:/C=DE/ST=Hessen/O=privacyidea/CN=CA001
                serial:FB:C8:EB:AC:83:CD:12:07

            X509v3 Extended Key Usage: 
                TLS Web Server Authentication
    Signature Algorithm: sha256WithRSAEncryption
         85:79:ec:b0:cd:a2:e4:2a:83:34:c8:43:bf:09:9d:59:6e:a6:
         03:26:1c:40:ab:fa:46:7c:db:16:49:ab:2a:ca:f7:a3:08:a4:
         97:02:cf:63:b1:98:9b:b0:79:da:7f:fa:cf:82:29:11:38:bd:
         3f:44:6d:23:e1:68:98:6c:fa:96:d1:21:ab:9d:80:ea:d1:53:
         b3:f6:a6:35:7b:54:bb:2b:2f:f3:bf:25:fe:76:4f:f2:52:60:
         a8:1a:a0:69:96:a5:93:49:4b:e6:53:bc:7c:27:3f:e8:f4:47:
         15:94:f6:dd:b0:fd:19:fc:cc:b0:e6:64:76:a1:92:1c:34:e0:
         1a:b1:5f:6e:0e:68:b4:c2:a2:fe:9a:46:8a:2a:1d:34:b6:30:
         7e:ae:11:d9:ac:10:0e:85:68:5d:d7:e6:0d:ca:f4:06:01:65:
         b8:38:eb:95:c8:ea:ab:b1:6d:44:73:33:5a:e5:0d:a1:1d:71:
         b7:44:a9:6a:f7:73:5c:32:68:40:a8:4c:d8:0b:df:03:6d:64:
         8b:b2:60:f2:f8:d3:4d:a2:d8:7c:df:1b:f4:08:b1:d9:86:58:
         52:9a:d8:b7:d7:6b:08:48:d7:30:6d:4c:1d:b7:75:79:4c:b6:
         36:8b:3a:ed:e9:f8:10:18:3f:90:e8:07:98:45:c7:84:96:07:
         48:49:2f:90
-----BEGIN CERTIFICATE-----
MIIECTCCAvGgAwIBAgIEEAAA2TANBgkqhkiG9w0BAQsFADBEMQswCQYDVQQGEwJE
RTEPMA0GA1UECAwGSGVzc2VuMRQwEgYDVQQKDAtwcml2YWN5aWRlYTEOMAwGA1UE
AwwFQ0EwMDEwHhcNMTcwMjI1MDA0MDI5WhcNMTgwMjI1MDA0MDI5WjA3MRMwEQYD
VQQDDApTdGV2ZSBUZXN0MSAwHgYJKoZIhvcNAQkBFhFzdGV2ZUBvcGVuc3NsLm9y
ZzCCASIwDQYJKoZIhvcNAQEBBQADggEPADCCAQoCggEBANKBiSBRSA9z9BEyJNUf
HP1c9bbmxfBSgdzSr2ZKfJMxYVyv0W0GcANgfHIMiN1JzZ4CbNJa11MP89q+aWS1
DwwA47NQR6Ozm7oTUNZYWkurOeARygonZwN4ImZtkh4bXEmu5mvRjjudBtPGrE1T
QxCr6JbBh4KXmY8g05kSNzGE4Yr/KQNfIpA+f5vgIMGt3K5MORoxlhcCjLLZtA0g
Ept9hlT9M/3BKmJG+GCWz24BbyLfE0fnl+wFciOjYvj676yccvA3yy83z5CoJ1GG
xtd4CI9+JaIVcKL7HLYVXqCXi4FMCSiKJzuUvHHbW3E3misW4G+1yfVLTyC6Zc+v
ra0CAwEAAaOCAQ4wggEKMAsGA1UdDwQEAwIFoDAJBgNVHRMEAjAAMBEGCWCGSAGG
+EIBAQQEAwIGQDAzBglghkgBhvhCAQ0EJhYkT3BlblNTTCBHZW5lcmF0ZWQgU2Vy
dmVyIENlcnRpZmljYXRlMB0GA1UdDgQWBBTlJW0+rw3dP0zyRRk51RTbfpzArTB0
BgNVHSMEbTBrgBT0p8DMkUavZPOR8if4yLJviocyc6FIpEYwRDELMAkGA1UEBhMC
REUxDzANBgNVBAgMBkhlc3NlbjEUMBIGA1UECgwLcHJpdmFjeWlkZWExDjAMBgNV
BAMMBUNBMDAxggkA+8jrrIPNEgcwEwYDVR0lBAwwCgYIKwYBBQUHAwEwDQYJKoZI
hvcNAQELBQADggEBAIV57LDNouQqgzTIQ78JnVlupgMmHECr+kZ82xZJqyrK96MI
pJcCz2OxmJuwedp/+s+CKRE4vT9EbSPhaJhs+pbRIaudgOrRU7P2pjV7VLsrL/O/
Jf52T/JSYKgaoGmWpZNJS+ZTvHwnP+j0RxWU9t2w/Rn8zLDmZHahkhw04BqxX24O
aLTCov6aRooqHTS2MH6uEdmsEA6FaF3X5g3K9AYBZbg465XI6quxbURzM1rlDaEd
cbdEqWr3c1wyaECoTNgL3wNtZIuyYPL4002i2HzfG/QIsdmGWFKa2LfXawhI1zBt
TB23dXlMtjaLOu3p+BAYP5DoB5hFx4SWB0hJL5A=
-----END CERTIFICATE-----
