Certificate:
    Data:
        Version: 3 (0x2)
        Serial Number: 268435682 (0x100000e2)
    Signature Algorithm: sha256WithRSAEncryption
        Issuer: C=DE, ST=Hessen, O=privacyidea, CN=CA001
        Validity
            Not Before: Feb 25 00:46:20 2017 GMT
            Not After : Mar 17 00:46:20 2019 GMT
        Subject: CN=Steve Test/emailAddress=steve@openssl.org
        Subject Public Key Info:
            Public Key Algorithm: rsaEncryption
                Public-Key: (2048 bit)
                Modulus:
                    00:d2:81:89:20:51:48:0f:73:f4:11:32:24:d5:1f:
                    1c:fd:5c:f5:b6:e6:c5:f0:52:81:dc:d2:af:66:4a:
                    7c:93:31:61:5c:af:d1:6d:06:70:03:60:7c:72:0c:
                    88:dd:49:cd:9e:02:6c:d2:5a:d7:53:0f:f3:da:be:
                    69:64:b5:0f:0c:00:e3:b3:50:47:a3:b3:9b:ba:13:
                    50:d6:58:5a:4b:ab:39:e0:11:ca:0a:27:67:03:78:
                    22:66:6d:92:1e:1b:5c:49:ae:e6:6b:d1:8e:3b:9d:
                    06:d3:c6:ac:4d:53:43:10:ab:e8:96:c1:87:82:97:
                    99:8f:20:d3:99:12:37:31:84:e1:8a:ff:29:03:5f:
                    22:90:3e:7f:9b:e0:20:c1:ad:dc:ae:4c:39:1a:31:
                    96:17:02:8c:b2:d9:b4:0d:20:12:9b:7d:86:54:fd:
                    33:fd:c1:2a:62:46:f8:60:96:cf:6e:01:6f:22:df:
                    13:47:e7:97:ec:05:72:23:a3:62:f8:fa:ef:ac:9c:
                    72:f0:37:cb:2f:37:cf:90:a8:27:51:86:c6:d7:78:
                    08:8f:7e:25:a2:15:70:a2:fb:1c:b6:15:5e:a0:97:
                    8b:81:4c:09:28:8a:27:3b:94:bc:71:db:5b:71:37:
                    9a:2b:16:e0:6f:b5:c9:f5:4b:4f:20:ba:65:cf:af:
                    ad:ad
                Exponent: 65537 (0x10001)
        X509v3 extensions:
            X509v3 Key Usage: 
                Digital Signature, Key Encipherment
            X509v3 Basic Constraints: 
                CA:FALSE
            Netscape Cert Type: 
                SSL Server
            Netscape Comment: 
                OpenSSL Generated Server Certificate
            X509v3 Subject Key Identifier: 
                E5:25:6D:3E:AF:0D:DD:3F:4C:F2:45:19:39:D5:14:DB:7E:9C:C0:AD
            X509v3 Authority Key Identifier: 
                keyid:F4:A7:C0:CC:91:46:AF:64:F3:91:F2:27:F8:C8:B2:6F:8A:87:32:73
                DirName:/C=DE/ST=Hessen/O=privacyidea/CN=CA001
                serial:FB:C8:EB:AC:83:CD:12:07

            X509v3 Extended Key Usage: 
                TLS Web Server Authentication
    Signature Algorithm: sha256WithRSAEncryption
         54:6e:b4:fa:7c:e7:6c:09:e6:dd:4c:09:52:2d:b3:7e:ca:3b:
         a3:8d:cd:02:51:75:c3:2d:bd:82:23:37:52:68:c3:30:e4:4d:
         0d:15:7d:c1:8b:1d:2a:0e:5e:c0:de:03:24:33:ab:f6:8e:d9:
         c7:f8:ac:12:b3:bd:ce:c5:01:58:4b:c6:7d:e6:1a:6c:c7:85:
         85:98:7c:bf:26:7a:5a:ec:05:f0:84:7a:98:5e:1c:07:68:26:
         13:76:68:e4:d8:e8:86:59:f2:f2:35:14:e6:aa:d0:7b:c9:f0:
         8a:55:2e:81:cc:10:80:55:c2:67:68:e5:1e:2f:48:06:2b:6f:
         4c:01:5e:e7:00:37:0b:fc:e0:99:37:c2:f9:4b:ca:f1:e0:6e:
         fb:7d:26:86:9f:de:7f:37:37:c4:7d:c6:76:eb:4a:b4:51:a7:
         9c:ab:b0:02:0e:14:2c:a8:15:9f:b1:b3:78:c0:76:70:ce:7c:
         b1:c1:fb:a0:69:a9:69:fc:4a:1a:3f:e8:df:92:08:1d:6e:0e:
         b2:ff:ff:63:80:74:18:a1:03:ce:d2:83:4a:6a:2a:ed:ad:01:
         5b:43:5e:f5:76:b1:69:be:c3:d9:88:58:98:0d:e7:37:32:88:
         80:e2:df:c2:6e:09:87:ad:f5:5b:25:1a:0d:cb:a3:ed:f2:90:
         ea:eb:e6:67
-----BEGIN CERTIFICATE-----
MIIECTCCAvGgAwIBAgIEEAAA4jANBgkqhkiG9w0BAQsFADBEMQswCQYDVQQGEwJE
RTEPMA0GA1UECAwGSGVzc2VuMRQwEgYDVQQKDAtwcml2YWN5aWRlYTEOMAwGA1UE
AwwFQ0EwMDEwHhcNMTcwMjI1MDA0NjIwWhcNMTkwMzE3MDA0NjIwWjA3MRMwEQYD
VQQDDApTdGV2ZSBUZXN0MSAwHgYJKoZIhvcNAQkBFhFzdGV2ZUBvcGVuc3NsLm9y
ZzCCASIwDQYJKoZIhvcNAQEBBQADggEPADCCAQoCggEBANKBiSBRSA9z9BEyJNUf
HP1c9bbmxfBSgdzSr2ZKfJMxYVyv0W0GcANgfHIMiN1JzZ4CbNJa11MP89q+aWS1
DwwA47NQR6Ozm7oTUNZYWkurOeARygonZwN4ImZtkh4bXEmu5mvRjjudBtPGrE1T
QxCr6JbBh4KXmY8g05kSNzGE4Yr/KQNfIpA+f5vgIMGt3K5MORoxlhcCjLLZtA0g
Ept9hlT9M/3BKmJG+GCWz24BbyLfE0fnl+wFciOjYvj676yccvA3yy83z5CoJ1GG
xtd4CI9+JaIVcKL7HLYVXqCXi4FMCSiKJzuUvHHbW3E3misW4G+1yfVLTyC6Zc+v
ra0CAwEAAaOCAQ4wggEKMAsGA1UdDwQEAwIFoDAJBgNVHRMEAjAAMBEGCWCGSAGG
+EIBAQQEAwIGQDAzBglghkgBhvhCAQ0EJhYkT3BlblNTTCBHZW5lcmF0ZWQgU2Vy
dmVyIENlcnRpZmljYXRlMB0GA1UdDgQWBBTlJW0+rw3dP0zyRRk51RTbfpzArTB0
BgNVHSMEbTBrgBT0p8DMkUavZPOR8if4yLJviocyc6FIpEYwRDELMAkGA1UEBhMC
REUxDzANBgNVBAgMBkhlc3NlbjEUMBIGA1UECgwLcHJpdmFjeWlkZWExDjAMBgNV
BAMMBUNBMDAxggkA+8jrrIPNEgcwEwYDVR0lBAwwCgYIKwYBBQUHAwEwDQYJKoZI
hvcNAQELBQADggEBAFRutPp852wJ5t1MCVIts37KO6ONzQJRdcMtvYIjN1JowzDk
TQ0VfcGLHSoOXsDeAyQzq/aO2cf4rBKzvc7FAVhLxn3mGmzHhYWYfL8melrsBfCE
epheHAdoJhN2aOTY6IZZ8vI1FOaq0HvJ8IpVLoHMEIBVwmdo5R4vSAYrb0wBXucA
Nwv84Jk3wvlLyvHgbvt9Joaf3n83N8R9xnbrSrRRp5yrsAIOFCyoFZ+xs3jAdnDO
fLHB+6BpqWn8Sho/6N+SCB1uDrL//2OAdBihA87Sg0pqKu2tAVtDXvV2sWm+w9mI
WJgN5zcyiIDi38JuCYet9VslGg3Lo+3ykOrr5mc=
-----END CERTIFICATE-----
