Certificate:
    Data:
        Version: 3 (0x2)
        Serial Number: 268435667 (0x100000d3)
    Signature Algorithm: sha256WithRSAEncryption
        Issuer: C=DE, ST=Hessen, O=privacyidea, CN=CA001
        Validity
            Not Before: Feb 25 00:52:18 2017 GMT
            Not After : Feb 25 00:52:18 2018 GMT
        Subject: CN=Steve Test/emailAddress=steve@openssl.org
        Subject Public Key Info:
            Public Key Algorithm: rsaEncryption
                Public-Key: (2048 bit)
                Modulus:
                    00:d2:81:89:20:51:48:0f:73:f4:11:32:24:d5:1f:
                    1c:fd:5c:f5:b6:e6:c5:f0:52:81:dc:d2:af:66:4a:
                    7c:93:31:61:5c:af:d1:6d:06:70:03:60:7c:72:0c:
                    88:dd:49:cd:9e:02:6c:d2:5a:d7:53:0f:f3:da:be:
                    69:64:b5:0f:0c:00:e3:b3:50:47:a3:b3:9b:ba:13:
                    50:d6:58:5a:4b:ab:39:e0:11:ca:0a:27:67:03:78:
                    22:66:6d:92:1e:1b:5c:49:ae:e6:6b:d1:8e:3b:9d:
                    06:d3:c6:ac:4d:53:43:10:ab:e8:96:c1:87:82:97:
                    99:8f:20:d3:99:12:37:31:84:e1:8a:ff:29:03:5f:
                    22:90:3e:7f:9b:e0:20:c1:ad:dc:ae:4c:39:1a:31:
                    96:17:02:8c:b2:d9:b4:0d:20:12:9b:7d:86:54:fd:
                    33:fd:c1:2a:62:46:f8:60:96:cf:6e:01:6f:22:df:
                    13:47:e7:97:ec:05:72:23:a3:62:f8:fa:ef:ac:9c:
                    72:f0:37:cb:2f:37:cf:90:a8:27:51:86:c6:d7:78:
                    08:8f:7e:25:a2:15:70:a2:fb:1c:b6:15:5e:a0:97:
                    8b:81:4c:09:28:8a:27:3b:94:bc:71:db:5b:71:37:
                    9a:2b:16:e0:6f:b5:c9:f5:4b:4f:20:ba:65:cf:af:
                    ad:ad
                Exponent: 65537 (0x10001)
        X509v3 extensions:
            X509v3 Key Usage: 
                Digital Signature, Key Encipherment
            X509v3 Basic Constraints: 
                CA:FALSE
            Netscape Cert Type: 
                SSL Server
            Netscape Comment: 
                OpenSSL Generated Server Certificate
            X509v3 Subject Key Identifier: 
                E5:25:6D:3E:AF:0D:DD:3F:4C:F2:45:19:39:D5:14:DB:7E:9C:C0:AD
            X509v3 Authority Key Identifier: 
                keyid:F4:A7:C0:CC:91:46:AF:64:F3:91:F2:27:F8:C8:B2:6F:8A:87:32:73
                DirName:/C=DE/ST=Hessen/O=privacyidea/CN=CA001
                serial:FB:C8:EB:AC:83:CD:12:07

            X509v3 Extended Key Usage: 
                TLS Web Server Authentication
    Signature Algorithm: sha256WithRSAEncryption
         67:c6:f6:13:d3:83:db:28:7e:7b:0b:11:6d:8c:68:11:d9:a9:
         b8:04:23:17:23:ea:90:fe:ac:4e:47:9d:36:2c:81:01:4e:51:
         dc:39:fd:5c:bd:78:00:e8:26:c0:dc:3a:c4:39:54:40:5c:8e:
         e3:74:30:16:02:15:be:80:69:65:86:a3:70:54:09:39:b8:6b:
         f6:db:c0:15:71:d4:c6:da:b3:53:2e:63:21:73:84:04:f0:3f:
         d2:b3:b1:a2:d4:c5:d3:78:31:09:d5:09:01:95:be:15:bf:8a:
         83:a2:06:1f:98:2d:8a:b6:16:08:88:94:b2:49:8a:e5:8e:71:
         ea:12:ab:26:5d:d3:c8:da:6b:a5:01:f6:b9:ed:b5:c0:07:2c:
         c4:0d:57:fb:4f:56:3c:6a:1a:85:94:9a:7b:00:63:bd:6b:d9:
         f0:fd:cd:5d:4d:87:85:77:9d:fd:c8:c8:45:45:79:0f:c7:69:
         e6:fc:9a:7d:1e:f2:92:e6:7f:65:1c:c9:44:d9:c1:25:cb:7c:
         9c:dd:e6:42:60:b3:aa:d4:e7:0c:ac:8a:f1:d0:2d:80:65:06:
         90:28:db:8f:31:35:00:e3:52:fa:fa:9b:ca:ec:9f:22:25:04:
         6c:c6:8b:74:e7:56:6f:e1:ed:fb:01:59:8d:05:35:b7:ea:f3:
         f3:68:06:62
-----BEGIN CERTIFICATE-----
MIIECTCCAvGgAwIBAgIEEAAA0zANBgkqhkiG9w0BAQsFADBEMQswCQYDVQQGEwJE
RTEPMA0GA1UECAwGSGVzc2VuMRQwEgYDVQQKDAtwcml2YWN5aWRlYTEOMAwGA1UE
AwwFQ0EwMDEwHhcNMTcwMjI1MDA1MjE4WhcNMTgwMjI1MDA1MjE4WjA3MRMwEQYD
VQQDDApTdGV2ZSBUZXN0MSAwHgYJKoZIhvcNAQkBFhFzdGV2ZUBvcGVuc3NsLm9y
ZzCCASIwDQYJKoZIhvcNAQEBBQADggEPADCCAQoCggEBANKBiSBRSA9z9BEyJNUf
HP1c9bbmxfBSgdzSr2ZKfJMxYVyv0W0GcANgfHIMiN1JzZ4CbNJa11MP89q+aWS1
DwwA47NQR6Ozm7oTUNZYWkurOeARygonZwN4ImZtkh4bXEmu5mvRjjudBtPGrE1T
QxCr6JbBh4KXmY8g05kSNzGE4Yr/KQNfIpA+f5vgIMGt3K5MORoxlhcCjLLZtA0g
Ept9hlT9M/3BKmJG+GCWz24BbyLfE0fnl+wFciOjYvj676yccvA3yy83z5CoJ1GG
xtd4CI9+JaIVcKL7HLYVXqCXi4FMCSiKJzuUvHHbW3E3misW4G+1yfVLTyC6Zc+v
ra0CAwEAAaOCAQ4wggEKMAsGA1UdDwQEAwIFoDAJBgNVHRMEAjAAMBEGCWCGSAGG
+EIBAQQEAwIGQDAzBglghkgBhvhCAQ0EJhYkT3BlblNTTCBHZW5lcmF0ZWQgU2Vy
dmVyIENlcnRpZmljYXRlMB0GA1UdDgQWBBTlJW0+rw3dP0zyRRk51RTbfpzArTB0
BgNVHSMEbTBrgBT0p8DMkUavZPOR8if4yLJviocyc6FIpEYwRDELMAkGA1UEBhMC
REUxDzANBgNVBAgMBkhlc3NlbjEUMBIGA1UECgwLcHJpdmFjeWlkZWExDjAMBgNV
BAMMBUNBMDAxggkA+8jrrIPNEgcwEwYDVR0lBAwwCgYIKwYBBQUHAwEwDQYJKoZI
hvcNAQELBQADggEBAGfG9hPTg9sofnsLEW2MaBHZqbgEIxcj6pD+rE5HnTYsgQFO
Udw5/Vy9eADoJsDcOsQ5VEBcjuN0MBYCFb6AaWWGo3BUCTm4a/bbwBVx1Mbas1Mu
YyFzhATwP9KzsaLUxdN4MQnVCQGVvhW/ioOiBh+YLYq2FgiIlLJJiuWOceoSqyZd
08jaa6UB9rnttcAHLMQNV/tPVjxqGoWUmnsAY71r2fD9zV1Nh4V3nf3IyEVFeQ/H
aeb8mn0e8pLmf2UcyUTZwSXLfJzd5kJgs6rU5wysivHQLYBlBpAo248xNQDjUvr6
m8rsnyIlBGzGi3TnVm/h7fsBWY0FNbfq8/NoBmI=
-----END CERTIFICATE-----
