Certificate:
    Data:
        Version: 3 (0x2)
        Serial Number: 268435679 (0x100000df)
    Signature Algorithm: sha256WithRSAEncryption
        Issuer: C=DE, ST=Hessen, O=privacyidea, CN=CA001
        Validity
            Not Before: Feb 25 00:46:19 2017 GMT
            Not After : Feb 25 00:46:19 2018 GMT
        Subject: C=DE, ST=Hessen, O=privacyidea, CN=requester.localdomain
        Subject Public Key Info:
            Public Key Algorithm: rsaEncryption
                Public-Key: (2048 bit)
                Modulus:
                    00:cd:be:14:4f:fa:ce:01:3f:42:22:1b:1d:9c:af:
                    dd:92:d2:7f:db:6c:b7:3e:39:43:43:6b:13:03:f1:
                    05:f4:07:74:bc:76:69:28:0b:af:19:8e:d7:fc:e3:
                    cd:c6:58:f2:ca:7f:08:6d:53:fc:07:02:44:24:c6:
                    b4:34:4c:8c:04:fe:33:0e:40:e2:20:ba:02:73:5a:
                    f7:f5:4f:63:6e:cc:c6:b6:df:54:1d:37:39:7d:51:
                    36:26:5f:bd:dc:3f:a8:8b:6b:a2:ae:b6:9d:d6:21:
                    e7:df:41:b8:7a:28:2a:68:48:ca:a8:2d:ed:e1:e9:
                    46:5e:5a:72:6d:b4:84:38:87:91:fd:94:11:0b:28:
                    84:c6:c2:2f:2a:fb:01:f9:36:7a:09:75:d1:33:88:
                    3c:73:41:5b:c8:bf:94:89:70:a1:f0:c0:b9:2e:50:
                    53:1e:b1:17:64:69:f4:2d:81:e0:a9:0d:0e:32:e9:
                    ba:55:8a:85:f1:1b:6f:49:79:b4:7f:88:c3:0d:3e:
                    54:88:9b:3d:1f:38:8c:04:f3:ee:6a:63:2b:f5:c6:
                    db:b4:83:aa:c4:78:41:3a:7d:4b:e1:c8:3e:71:ca:
                    1b:61:59:ea:c6:c4:ca:32:5e:c9:e9:bf:12:29:e6:
                    c6:c3:63:fe:a0:55:da:7a:f1:60:98:4d:26:ed:fa:
                    70:2d
                Exponent: 65537 (0x10001)
        X509v3 extensions:
            X509v3 Key Usage: 
                Digital Signature, Key Encipherment
            X509v3 Basic Constraints: 
                CA:FALSE
            Netscape Cert Type: 
                SSL Server
            Netscape Comment: 
                OpenSSL Generated Server Certificate
            X509v3 Subject Key Identifier: 
                53:3F:ED:5D:09:07:B3:65:7B:AB:45:C9:24:5B:09:77:80:0A:96:ED
            X509v3 Authority Key Identifier: 
                keyid:F4:A7:C0:CC:91:46:AF:64:F3:91:F2:27:F8:C8:B2:6F:8A:87:32:73
                DirName:/C=DE/ST=Hessen/O=privacyidea/CN=CA001
                serial:FB:C8:EB:AC:83:CD:12:07

            X509v3 Extended Key Usage: 
                TLS Web Server Authentication
    Signature Algorithm: sha256WithRSAEncryption
         a6:89:bf:49:28:66:82:46:2d:43:72:3f:0e:dd:27:9f:3e:6b:
         c8:62:eb:e2:c3:e9:09:95:e9:9e:0c:28:1e:94:45:14:c5:b9:
         df:e8:b3:72:04:fc:fd:82:18:41:62:0a:72:cc:fb:cf:bc:36:
         be:91:3c:0d:37:75:17:aa:90:12:9e:08:b5:22:2a:26:89:fe:
         79:10:68:0e:5c:38:4e:c6:15:7a:e6:ca:7f:77:51:a0:10:84:
         5c:3b:b3:8f:6d:f0:ab:4b:8f:c9:f0:a3:b6:96:79:c1:56:97:
         40:50:8c:11:15:fb:ff:3a:2e:79:8e:18:41:d1:37:18:f8:07:
         04:f5:98:4b:b7:73:d1:8e:12:f6:01:b2:e6:c0:4b:18:c8:78:
         c6:95:4f:0a:3a:c6:ac:ca:92:e8:40:af:fe:d2:ee:39:37:46:
         b9:e7:04:95:a9:9f:2b:e4:a8:57:2c:3f:b8:13:f6:b7:3c:d9:
         72:56:bf:de:81:52:f5:93:bb:ca:42:3a:6a:76:79:a9:1f:47:
         d1:9c:7b:42:22:0c:45:b3:fb:f3:fc:f9:01:65:ca:9d:ff:93:
         b2:3d:74:ca:53:24:d1:4d:03:7c:55:03:65:39:57:21:14:22:
         fe:c5:4b:f0:19:68:43:db:07:28:10:98:32:fe:09:89:8f:4b:
         43:96:08:99
-----BEGIN CERTIFICATE-----
MIIEJjCCAw6gAwIBAgIEEAAA3zANBgkqhkiG9w0BAQsFADBEMQswCQYDVQQGEwJE
RTEPMA0GA1UECAwGSGVzc2VuMRQwEgYDVQQKDAtwcml2YWN5aWRlYTEOMAwGA1UE
AwwFQ0EwMDEwHhcNMTcwMjI1MDA0NjE5WhcNMTgwMjI1MDA0NjE5WjBUMQswCQYD
VQQGEwJERTEPMA0GA1UECAwGSGVzc2VuMRQwEgYDVQQKDAtwcml2YWN5aWRlYTEe
MBwGA1UEAwwVcmVxdWVzdGVyLmxvY2FsZG9tYWluMIIBIjANBgkqhkiG9w0BAQEF
AAOCAQ8AMIIBCgKCAQEAzb4UT/rOAT9CIhsdnK/dktJ/22y3PjlDQ2sTA/EF9Ad0
vHZpKAuvGY7X/OPNxljyyn8IbVP8BwJEJMa0NEyMBP4zDkDiILoCc1r39U9jbszG
tt9UHTc5fVE2Jl+93D+oi2uirrad1iHn30G4eigqaEjKqC3t4elGXlpybbSEOIeR
/ZQRCyiExsIvKvsB+TZ6CXXRM4g8c0FbyL+UiXCh8MC5LlBTHrEXZGn0LYHgqQ0O
Mum6VYqF8RtvSXm0f4jDDT5UiJs9HziMBPPuamMr9cbbtIOqxHhBOn1L4cg+ccob
YVnqxsTKMl7J6b8SKebGw2P+oFXaevFgmE0m7fpwLQIDAQABo4IBDjCCAQowCwYD
VR0PBAQDAgWgMAkGA1UdEwQCMAAwEQYJYIZIAYb4QgEBBAQDAgZAMDMGCWCGSAGG
+EIBDQQmFiRPcGVuU1NMIEdlbmVyYXRlZCBTZXJ2ZXIgQ2VydGlmaWNhdGUwHQYD
VR0OBBYEFFM/7V0JB7Nle6tFySRbCXeACpbtMHQGA1UdIwRtMGuAFPSnwMyRRq9k
85HyJ/jIsm+KhzJzoUikRjBEMQswCQYDVQQGEwJERTEPMA0GA1UECAwGSGVzc2Vu
MRQwEgYDVQQKDAtwcml2YWN5aWRlYTEOMAwGA1UEAwwFQ0EwMDGCCQD7yOusg80S
BzATBgNVHSUEDDAKBggrBgEFBQcDATANBgkqhkiG9w0BAQsFAAOCAQEApom/SShm
gkYtQ3I/Dt0nnz5ryGLr4sPpCZXpngwoHpRFFMW53+izcgT8/YIYQWIKcsz7z7w2
vpE8DTd1F6qQEp4ItSIqJon+eRBoDlw4TsYVeubKf3dRoBCEXDuzj23wq0uPyfCj
tpZ5wVaXQFCMERX7/zoueY4YQdE3GPgHBPWYS7dz0Y4S9gGy5sBLGMh4xpVPCjrG
rMqS6ECv/tLuOTdGuecElamfK+SoVyw/uBP2tzzZcla/3oFS9ZO7ykI6anZ5qR9H
0Zx7QiIMRbP78/z5AWXKnf+Tsj10ylMk0U0DfFUDZTlXIRQi/sVL8BloQ9sHKBCY
Mv4JiY9LQ5YImQ==
-----END CERTIFICATE-----
