Certificate:
    Data:
        Version: 3 (0x2)
        Serial Number: 268435685 (0x100000e5)
    Signature Algorithm: sha1WithRSAEncryption
        Issuer: C=DE, ST=Hessen, O=privacyidea, CN=CA001
        Validity
            Not Before: Feb 23 15:25:44 2017 GMT
            Not After : Feb 23 15:25:44 2018 GMT
        Subject: C=DE, ST=Hessen, O=privacyidea, CN=requester.localdomain
        Subject Public Key Info:
            Public Key Algorithm: rsaEncryption
                Public-Key: (2048 bit)
                Modulus:
                    00:cd:be:14:4f:fa:ce:01:3f:42:22:1b:1d:9c:af:
                    dd:92:d2:7f:db:6c:b7:3e:39:43:43:6b:13:03:f1:
                    05:f4:07:74:bc:76:69:28:0b:af:19:8e:d7:fc:e3:
                    cd:c6:58:f2:ca:7f:08:6d:53:fc:07:02:44:24:c6:
                    b4:34:4c:8c:04:fe:33:0e:40:e2:20:ba:02:73:5a:
                    f7:f5:4f:63:6e:cc:c6:b6:df:54:1d:37:39:7d:51:
                    36:26:5f:bd:dc:3f:a8:8b:6b:a2:ae:b6:9d:d6:21:
                    e7:df:41:b8:7a:28:2a:68:48:ca:a8:2d:ed:e1:e9:
                    46:5e:5a:72:6d:b4:84:38:87:91:fd:94:11:0b:28:
                    84:c6:c2:2f:2a:fb:01:f9:36:7a:09:75:d1:33:88:
                    3c:73:41:5b:c8:bf:94:89:70:a1:f0:c0:b9:2e:50:
                    53:1e:b1:17:64:69:f4:2d:81:e0:a9:0d:0e:32:e9:
                    ba:55:8a:85:f1:1b:6f:49:79:b4:7f:88:c3:0d:3e:
                    54:88:9b:3d:1f:38:8c:04:f3:ee:6a:63:2b:f5:c6:
                    db:b4:83:aa:c4:78:41:3a:7d:4b:e1:c8:3e:71:ca:
                    1b:61:59:ea:c6:c4:ca:32:5e:c9:e9:bf:12:29:e6:
                    c6:c3:63:fe:a0:55:da:7a:f1:60:98:4d:26:ed:fa:
                    70:2d
                Exponent: 65537 (0x10001)
        X509v3 extensions:
            X509v3 Key Usage: 
                Digital Signature, Key Encipherment
            X509v3 Basic Constraints: 
                CA:FALSE
            Netscape Cert Type: 
                SSL Server
            Netscape Comment: 
                OpenSSL Generated Server Certificate
            X509v3 Subject Key Identifier: 
                53:3F:ED:5D:09:07:B3:65:7B:AB:45:C9:24:5B:09:77:80:0A:96:ED
            X509v3 Authority Key Identifier: 
                keyid:F4:A7:C0:CC:91:46:AF:64:F3:91:F2:27:F8:C8:B2:6F:8A:87:32:73
                DirName:/C=DE/ST=Hessen/O=privacyidea/CN=CA001
                serial:FB:C8:EB:AC:83:CD:12:07

            X509v3 Extended Key Usage: 
                TLS Web Server Authentication
    Signature Algorithm: sha1WithRSAEncryption
         80:50:c0:bc:cc:48:12:6b:25:bb:a8:57:25:3f:2b:3f:8a:74:
         4b:cd:7a:1c:b6:9d:a4:23:d9:1c:bc:37:9d:64:b2:dc:e0:66:
         d0:8c:aa:d4:16:ce:20:92:d1:1b:e5:97:68:3d:79:e4:e7:f7:
         d5:fb:43:d2:f0:cf:69:30:d7:0d:24:62:99:ef:ba:50:71:8d:
         ee:18:36:a2:72:45:82:9c:a1:fd:64:84:ea:39:94:34:cf:5a:
         be:09:95:c5:6b:21:1c:a6:95:06:92:f5:27:0f:b0:15:63:0b:
         2a:08:1c:34:35:47:92:b2:6a:d7:94:fe:48:10:b8:0d:d4:0c:
         53:5c:d8:78:7f:66:7d:30:ac:36:03:5c:dc:ff:f9:bd:e4:23:
         61:60:bb:52:a4:56:9b:84:ab:82:db:de:3a:be:f4:b8:e3:a7:
         9e:aa:ee:76:8b:09:ed:82:75:bb:ee:39:78:ec:24:83:c5:5b:
         31:83:8b:be:b4:cd:00:77:31:e9:cc:0f:24:54:93:38:39:1e:
         46:2c:23:6d:c2:66:89:c5:7c:e6:0c:37:cc:2c:78:96:1b:39:
         be:f3:a9:b2:d6:c5:79:26:4d:38:32:3a:d9:ea:21:7c:f8:f4:
         7f:1c:e3:c9:d9:69:7d:17:cd:c4:9c:f2:c4:80:f8:21:68:e9:
         d4:35:74:1a
-----BEGIN CERTIFICATE-----
MIIEJjCCAw6gAwIBAgIEEAAA5TANBgkqhkiG9w0BAQUFADBEMQswCQYDVQQGEwJE
RTEPMA0GA1UECAwGSGVzc2VuMRQwEgYDVQQKDAtwcml2YWN5aWRlYTEOMAwGA1UE
AwwFQ0EwMDEwHhcNMTcwMjIzMTUyNTQ0WhcNMTgwMjIzMTUyNTQ0WjBUMQswCQYD
VQQGEwJERTEPMA0GA1UECAwGSGVzc2VuMRQwEgYDVQQKDAtwcml2YWN5aWRlYTEe
MBwGA1UEAwwVcmVxdWVzdGVyLmxvY2FsZG9tYWluMIIBIjANBgkqhkiG9w0BAQEF
AAOCAQ8AMIIBCgKCAQEAzb4UT/rOAT9CIhsdnK/dktJ/22y3PjlDQ2sTA/EF9Ad0
vHZpKAuvGY7X/OPNxljyyn8IbVP8BwJEJMa0NEyMBP4zDkDiILoCc1r39U9jbszG
tt9UHTc5fVE2Jl+93D+oi2uirrad1iHn30G4eigqaEjKqC3t4elGXlpybbSEOIeR
/ZQRCyiExsIvKvsB+TZ6CXXRM4g8c0FbyL+UiXCh8MC5LlBTHrEXZGn0LYHgqQ0O
Mum6VYqF8RtvSXm0f4jDDT5UiJs9HziMBPPuamMr9cbbtIOqxHhBOn1L4cg+ccob
YVnqxsTKMl7J6b8SKebGw2P+oFXaevFgmE0m7fpwLQIDAQABo4IBDjCCAQowCwYD
VR0PBAQDAgWgMAkGA1UdEwQCMAAwEQYJYIZIAYb4QgEBBAQDAgZAMDMGCWCGSAGG
+EIBDQQmFiRPcGVuU1NMIEdlbmVyYXRlZCBTZXJ2ZXIgQ2VydGlmaWNhdGUwHQYD
VR0OBBYEFFM/7V0JB7Nle6tFySRbCXeACpbtMHQGA1UdIwRtMGuAFPSnwMyRRq9k
85HyJ/jIsm+KhzJzoUikRjBEMQswCQYDVQQGEwJERTEPMA0GA1UECAwGSGVzc2Vu
MRQwEgYDVQQKDAtwcml2YWN5aWRlYTEOMAwGA1UEAwwFQ0EwMDGCCQD7yOusg80S
BzATBgNVHSUEDDAKBggrBgEFBQcDATANBgkqhkiG9w0BAQUFAAOCAQEAgFDAvMxI
Emslu6hXJT8rP4p0S816HLadpCPZHLw3nWSy3OBm0Iyq1BbOIJLRG+WXaD155Of3
1ftD0vDPaTDXDSRime+6UHGN7hg2onJFgpyh/WSE6jmUNM9avgmVxWshHKaVBpL1
Jw+wFWMLKggcNDVHkrJq15T+SBC4DdQMU1zYeH9mfTCsNgNc3P/5veQjYWC7UqRW
m4SrgtveOr70uOOnnqrudosJ7YJ1u+45eOwkg8VbMYOLvrTNAHcx6cwPJFSTODke
RiwjbcJmicV85gw3zCx4lhs5vvOpstbFeSZNODI62eohfPj0fxzjydlpfRfNxJzy
xID4IWjp1DV0Gg==
-----END CERTIFICATE-----
