Certificate:
    Data:
        Version: 3 (0x2)
        Serial Number: 268435669 (0x100000d5)
    Signature Algorithm: sha256WithRSAEncryption
        Issuer: C=DE, ST=Hessen, O=privacyidea, CN=CA001
        Validity
            Not Before: Feb 25 00:56:00 2017 GMT
            Not After : Feb 25 00:56:00 2018 GMT
        Subject: C=DE, ST=Hessen, O=privacyidea, CN=requester.localdomain
        Subject Public Key Info:
            Public Key Algorithm: rsaEncryption
                Public-Key: (2048 bit)
                Modulus:
                    00:cd:be:14:4f:fa:ce:01:3f:42:22:1b:1d:9c:af:
                    dd:92:d2:7f:db:6c:b7:3e:39:43:43:6b:13:03:f1:
                    05:f4:07:74:bc:76:69:28:0b:af:19:8e:d7:fc:e3:
                    cd:c6:58:f2:ca:7f:08:6d:53:fc:07:02:44:24:c6:
                    b4:34:4c:8c:04:fe:33:0e:40:e2:20:ba:02:73:5a:
                    f7:f5:4f:63:6e:cc:c6:b6:df:54:1d:37:39:7d:51:
                    36:26:5f:bd:dc:3f:a8:8b:6b:a2:ae:b6:9d:d6:21:
                    e7:df:41:b8:7a:28:2a:68:48:ca:a8:2d:ed:e1:e9:
                    46:5e:5a:72:6d:b4:84:38:87:91:fd:94:11:0b:28:
                    84:c6:c2:2f:2a:fb:01:f9:36:7a:09:75:d1:33:88:
                    3c:73:41:5b:c8:bf:94:89:70:a1:f0:c0:b9:2e:50:
                    53:1e:b1:17:64:69:f4:2d:81:e0:a9:0d:0e:32:e9:
                    ba:55:8a:85:f1:1b:6f:49:79:b4:7f:88:c3:0d:3e:
                    54:88:9b:3d:1f:38:8c:04:f3:ee:6a:63:2b:f5:c6:
                    db:b4:83:aa:c4:78:41:3a:7d:4b:e1:c8:3e:71:ca:
                    1b:61:59:ea:c6:c4:ca:32:5e:c9:e9:bf:12:29:e6:
                    c6:c3:63:fe:a0:55:da:7a:f1:60:98:4d:26:ed:fa:
                    70:2d
                Exponent: 65537 (0x10001)
        X509v3 extensions:
            X509v3 Key Usage: 
                Digital Signature, Key Encipherment
            X509v3 Basic Constraints: 
                CA:FALSE
            Netscape Cert Type: 
                SSL Server
            Netscape Comment: 
                OpenSSL Generated Server Certificate
            X509v3 Subject Key Identifier: 
                53:3F:ED:5D:09:07:B3:65:7B:AB:45:C9:24:5B:09:77:80:0A:96:ED
            X509v3 Authority Key Identifier: 
                keyid:F4:A7:C0:CC:91:46:AF:64:F3:91:F2:27:F8:C8:B2:6F:8A:87:32:73
                DirName:/C=DE/ST=Hessen/O=privacyidea/CN=CA001
                serial:FB:C8:EB:AC:83:CD:12:07

            X509v3 Extended Key Usage: 
                TLS Web Server Authentication
    Signature Algorithm: sha256WithRSAEncryption
         6b:c6:8e:52:35:d9:8d:7b:dc:80:cc:d4:3a:19:4f:bf:0d:0b:
         03:c4:0c:38:cf:7d:28:0a:7f:42:3d:f6:67:4d:8d:02:38:da:
         17:8f:0e:a8:4d:b0:06:d4:10:41:47:24:75:c8:ac:13:e0:4e:
         23:28:7d:04:9d:40:ce:8c:eb:c9:92:6f:7a:2b:af:38:9f:57:
         cf:29:fe:40:28:b4:48:32:be:82:48:8b:dc:8f:27:18:03:7f:
         d8:e8:9c:8a:c2:3f:fc:26:db:e9:db:6d:8e:ee:e7:57:ea:8d:
         38:a4:fe:b5:1b:47:15:94:96:88:f8:a7:8c:65:b4:64:98:2d:
         d9:4d:ee:d2:6f:0c:f3:a3:6f:59:c9:43:66:c7:cb:3e:ae:e6:
         1a:d4:1e:39:9a:3c:50:cd:d2:10:93:4b:a2:0b:92:aa:42:eb:
         5b:63:56:7d:59:13:32:23:f4:69:ea:4b:bd:dc:66:7e:20:69:
         d3:9d:b9:49:92:ed:d5:04:11:b7:9e:0d:6d:ce:b2:9f:24:27:
         0b:58:bb:f2:f6:10:b5:55:95:35:e3:09:cb:90:3e:2d:67:08:
         e9:ae:a8:a5:49:eb:bd:ad:2f:3e:8a:e0:90:94:f7:17:f5:9e:
         04:aa:b3:67:7b:d5:16:73:c3:02:5b:2e:e7:21:c8:8b:a4:eb:
         94:b7:a1:4d
-----BEGIN CERTIFICATE-----
MIIEJjCCAw6gAwIBAgIEEAAA1TANBgkqhkiG9w0BAQsFADBEMQswCQYDVQQGEwJE
RTEPMA0GA1UECAwGSGVzc2VuMRQwEgYDVQQKDAtwcml2YWN5aWRlYTEOMAwGA1UE
AwwFQ0EwMDEwHhcNMTcwMjI1MDA1NjAwWhcNMTgwMjI1MDA1NjAwWjBUMQswCQYD
VQQGEwJERTEPMA0GA1UECAwGSGVzc2VuMRQwEgYDVQQKDAtwcml2YWN5aWRlYTEe
MBwGA1UEAwwVcmVxdWVzdGVyLmxvY2FsZG9tYWluMIIBIjANBgkqhkiG9w0BAQEF
AAOCAQ8AMIIBCgKCAQEAzb4UT/rOAT9CIhsdnK/dktJ/22y3PjlDQ2sTA/EF9Ad0
vHZpKAuvGY7X/OPNxljyyn8IbVP8BwJEJMa0NEyMBP4zDkDiILoCc1r39U9jbszG
tt9UHTc5fVE2Jl+93D+oi2uirrad1iHn30G4eigqaEjKqC3t4elGXlpybbSEOIeR
/ZQRCyiExsIvKvsB+TZ6CXXRM4g8c0FbyL+UiXCh8MC5LlBTHrEXZGn0LYHgqQ0O
Mum6VYqF8RtvSXm0f4jDDT5UiJs9HziMBPPuamMr9cbbtIOqxHhBOn1L4cg+ccob
YVnqxsTKMl7J6b8SKebGw2P+oFXaevFgmE0m7fpwLQIDAQABo4IBDjCCAQowCwYD
VR0PBAQDAgWgMAkGA1UdEwQCMAAwEQYJYIZIAYb4QgEBBAQDAgZAMDMGCWCGSAGG
+EIBDQQmFiRPcGVuU1NMIEdlbmVyYXRlZCBTZXJ2ZXIgQ2VydGlmaWNhdGUwHQYD
VR0OBBYEFFM/7V0JB7Nle6tFySRbCXeACpbtMHQGA1UdIwRtMGuAFPSnwMyRRq9k
85HyJ/jIsm+KhzJzoUikRjBEMQswCQYDVQQGEwJERTEPMA0GA1UECAwGSGVzc2Vu
MRQwEgYDVQQKDAtwcml2YWN5aWRlYTEOMAwGA1UEAwwFQ0EwMDGCCQD7yOusg80S
BzATBgNVHSUEDDAKBggrBgEFBQcDATANBgkqhkiG9w0BAQsFAAOCAQEAa8aOUjXZ
jXvcgMzUOhlPvw0LA8QMOM99KAp/Qj32Z02NAjjaF48OqE2wBtQQQUckdcisE+BO
Iyh9BJ1AzozryZJveiuvOJ9Xzyn+QCi0SDK+gkiL3I8nGAN/2OicisI//Cbb6dtt
ju7nV+qNOKT+tRtHFZSWiPinjGW0ZJgt2U3u0m8M86NvWclDZsfLPq7mGtQeOZo8
UM3SEJNLoguSqkLrW2NWfVkTMiP0aepLvdxmfiBp0525SZLt1QQRt54Nbc6ynyQn
C1i78vYQtVWVNeMJy5A+LWcI6a6opUnrva0vPorgkJT3F/WeBKqzZ3vVFnPDAlsu
5yHIi6TrlLehTQ==
-----END CERTIFICATE-----
