Certificate:
    Data:
        Version: 3 (0x2)
        Serial Number: 268435668 (0x100000d4)
    Signature Algorithm: sha256WithRSAEncryption
        Issuer: C=DE, ST=Hessen, O=privacyidea, CN=CA001
        Validity
            Not Before: Feb 25 00:52:19 2017 GMT
            Not After : Mar 17 00:52:19 2019 GMT
        Subject: CN=Steve Test/emailAddress=steve@openssl.org
        Subject Public Key Info:
            Public Key Algorithm: rsaEncryption
                Public-Key: (2048 bit)
                Modulus:
                    00:d2:81:89:20:51:48:0f:73:f4:11:32:24:d5:1f:
                    1c:fd:5c:f5:b6:e6:c5:f0:52:81:dc:d2:af:66:4a:
                    7c:93:31:61:5c:af:d1:6d:06:70:03:60:7c:72:0c:
                    88:dd:49:cd:9e:02:6c:d2:5a:d7:53:0f:f3:da:be:
                    69:64:b5:0f:0c:00:e3:b3:50:47:a3:b3:9b:ba:13:
                    50:d6:58:5a:4b:ab:39:e0:11:ca:0a:27:67:03:78:
                    22:66:6d:92:1e:1b:5c:49:ae:e6:6b:d1:8e:3b:9d:
                    06:d3:c6:ac:4d:53:43:10:ab:e8:96:c1:87:82:97:
                    99:8f:20:d3:99:12:37:31:84:e1:8a:ff:29:03:5f:
                    22:90:3e:7f:9b:e0:20:c1:ad:dc:ae:4c:39:1a:31:
                    96:17:02:8c:b2:d9:b4:0d:20:12:9b:7d:86:54:fd:
                    33:fd:c1:2a:62:46:f8:60:96:cf:6e:01:6f:22:df:
                    13:47:e7:97:ec:05:72:23:a3:62:f8:fa:ef:ac:9c:
                    72:f0:37:cb:2f:37:cf:90:a8:27:51:86:c6:d7:78:
                    08:8f:7e:25:a2:15:70:a2:fb:1c:b6:15:5e:a0:97:
                    8b:81:4c:09:28:8a:27:3b:94:bc:71:db:5b:71:37:
                    9a:2b:16:e0:6f:b5:c9:f5:4b:4f:20:ba:65:cf:af:
                    ad:ad
                Exponent: 65537 (0x10001)
        X509v3 extensions:
            X509v3 Key Usage: 
                Digital Signature, Key Encipherment
            X509v3 Basic Constraints: 
                CA:FALSE
            Netscape Cert Type: 
                SSL Server
            Netscape Comment: 
                OpenSSL Generated Server Certificate
            X509v3 Subject Key Identifier: 
                E5:25:6D:3E:AF:0D:DD:3F:4C:F2:45:19:39:D5:14:DB:7E:9C:C0:AD
            X509v3 Authority Key Identifier: 
                keyid:F4:A7:C0:CC:91:46:AF:64:F3:91:F2:27:F8:C8:B2:6F:8A:87:32:73
                DirName:/C=DE/ST=Hessen/O=privacyidea/CN=CA001
                serial:FB:C8:EB:AC:83:CD:12:07

            X509v3 Extended Key Usage: 
                TLS Web Server Authentication
    Signature Algorithm: sha256WithRSAEncryption
         73:b4:fb:3b:6e:56:d1:33:d6:15:c6:dd:9a:6e:a7:7e:58:09:
         ea:dd:ea:82:a7:df:ce:c4:cd:36:27:06:56:5b:5f:91:01:c1:
         75:44:94:de:8e:ba:ff:69:f1:7e:ae:8d:d5:db:48:df:06:56:
         de:c4:95:44:5e:0e:b0:c4:26:5d:9d:c6:0b:49:8a:9f:66:18:
         79:44:f0:53:3c:9a:0e:74:1c:ea:4f:a2:3b:49:c5:cb:8b:a8:
         af:01:e2:f6:91:2a:6b:46:ef:c6:f9:9b:ff:65:71:97:0b:17:
         e0:3f:e6:0e:d9:29:b5:cb:2f:0f:c7:d1:a5:5a:de:61:80:b1:
         da:99:ce:0e:e3:73:96:3d:c4:ed:87:94:fb:3c:2c:bd:cb:03:
         b5:ca:64:a7:50:84:9c:74:3a:f6:ba:6a:4a:89:13:b1:ba:56:
         b6:ca:29:11:d9:27:33:f7:87:65:66:c2:04:4a:34:ed:8b:b6:
         ea:6d:87:ba:4a:85:22:c6:04:68:f9:e6:92:df:5f:96:72:1b:
         1b:94:00:5a:9e:72:0f:3e:47:31:07:5a:9f:eb:bf:25:f1:b8:
         15:b1:89:88:c3:02:34:3b:b2:39:cb:2a:13:b0:cf:c6:db:84:
         04:34:b1:95:40:74:b5:af:f2:11:69:ef:5a:6c:99:ac:96:e6:
         27:b3:5d:42
-----BEGIN CERTIFICATE-----
MIIECTCCAvGgAwIBAgIEEAAA1DANBgkqhkiG9w0BAQsFADBEMQswCQYDVQQGEwJE
RTEPMA0GA1UECAwGSGVzc2VuMRQwEgYDVQQKDAtwcml2YWN5aWRlYTEOMAwGA1UE
AwwFQ0EwMDEwHhcNMTcwMjI1MDA1MjE5WhcNMTkwMzE3MDA1MjE5WjA3MRMwEQYD
VQQDDApTdGV2ZSBUZXN0MSAwHgYJKoZIhvcNAQkBFhFzdGV2ZUBvcGVuc3NsLm9y
ZzCCASIwDQYJKoZIhvcNAQEBBQADggEPADCCAQoCggEBANKBiSBRSA9z9BEyJNUf
HP1c9bbmxfBSgdzSr2ZKfJMxYVyv0W0GcANgfHIMiN1JzZ4CbNJa11MP89q+aWS1
DwwA47NQR6Ozm7oTUNZYWkurOeARygonZwN4ImZtkh4bXEmu5mvRjjudBtPGrE1T
QxCr6JbBh4KXmY8g05kSNzGE4Yr/KQNfIpA+f5vgIMGt3K5MORoxlhcCjLLZtA0g
Ept9hlT9M/3BKmJG+GCWz24BbyLfE0fnl+wFciOjYvj676yccvA3yy83z5CoJ1GG
xtd4CI9+JaIVcKL7HLYVXqCXi4FMCSiKJzuUvHHbW3E3misW4G+1yfVLTyC6Zc+v
ra0CAwEAAaOCAQ4wggEKMAsGA1UdDwQEAwIFoDAJBgNVHRMEAjAAMBEGCWCGSAGG
+EIBAQQEAwIGQDAzBglghkgBhvhCAQ0EJhYkT3BlblNTTCBHZW5lcmF0ZWQgU2Vy
dmVyIENlcnRpZmljYXRlMB0GA1UdDgQWBBTlJW0+rw3dP0zyRRk51RTbfpzArTB0
BgNVHSMEbTBrgBT0p8DMkUavZPOR8if4yLJviocyc6FIpEYwRDELMAkGA1UEBhMC
REUxDzANBgNVBAgMBkhlc3NlbjEUMBIGA1UECgwLcHJpdmFjeWlkZWExDjAMBgNV
BAMMBUNBMDAxggkA+8jrrIPNEgcwEwYDVR0lBAwwCgYIKwYBBQUHAwEwDQYJKoZI
hvcNAQELBQADggEBAHO0+ztuVtEz1hXG3Zpup35YCerd6oKn387EzTYnBlZbX5EB
wXVElN6Ouv9p8X6ujdXbSN8GVt7ElUReDrDEJl2dxgtJip9mGHlE8FM8mg50HOpP
ojtJxcuLqK8B4vaRKmtG78b5m/9lcZcLF+A/5g7ZKbXLLw/H0aVa3mGAsdqZzg7j
c5Y9xO2HlPs8LL3LA7XKZKdQhJx0Ova6akqJE7G6VrbKKRHZJzP3h2VmwgRKNO2L
tupth7pKhSLGBGj55pLfX5ZyGxuUAFqecg8+RzEHWp/rvyXxuBWxiYjDAjQ7sjnL
KhOwz8bbhAQ0sZVAdLWv8hFp71psmayW5iezXUI=
-----END CERTIFICATE-----
