Certificate:
    Data:
        Version: 3 (0x2)
        Serial Number: 268435664 (0x100000d0)
    Signature Algorithm: sha256WithRSAEncryption
        Issuer: C=DE, ST=Hessen, O=privacyidea, CN=CA001
        Validity
            Not Before: Feb 25 00:50:43 2017 GMT
            Not After : Feb 25 00:50:43 2018 GMT
        Subject: C=DE, ST=Hessen, O=privacyidea, CN=requester.localdomain
        Subject Public Key Info:
            Public Key Algorithm: rsaEncryption
                Public-Key: (2048 bit)
                Modulus:
                    00:cd:be:14:4f:fa:ce:01:3f:42:22:1b:1d:9c:af:
                    dd:92:d2:7f:db:6c:b7:3e:39:43:43:6b:13:03:f1:
                    05:f4:07:74:bc:76:69:28:0b:af:19:8e:d7:fc:e3:
                    cd:c6:58:f2:ca:7f:08:6d:53:fc:07:02:44:24:c6:
                    b4:34:4c:8c:04:fe:33:0e:40:e2:20:ba:02:73:5a:
                    f7:f5:4f:63:6e:cc:c6:b6:df:54:1d:37:39:7d:51:
                    36:26:5f:bd:dc:3f:a8:8b:6b:a2:ae:b6:9d:d6:21:
                    e7:df:41:b8:7a:28:2a:68:48:ca:a8:2d:ed:e1:e9:
                    46:5e:5a:72:6d:b4:84:38:87:91:fd:94:11:0b:28:
                    84:c6:c2:2f:2a:fb:01:f9:36:7a:09:75:d1:33:88:
                    3c:73:41:5b:c8:bf:94:89:70:a1:f0:c0:b9:2e:50:
                    53:1e:b1:17:64:69:f4:2d:81:e0:a9:0d:0e:32:e9:
                    ba:55:8a:85:f1:1b:6f:49:79:b4:7f:88:c3:0d:3e:
                    54:88:9b:3d:1f:38:8c:04:f3:ee:6a:63:2b:f5:c6:
                    db:b4:83:aa:c4:78:41:3a:7d:4b:e1:c8:3e:71:ca:
                    1b:61:59:ea:c6:c4:ca:32:5e:c9:e9:bf:12:29:e6:
                    c6:c3:63:fe:a0:55:da:7a:f1:60:98:4d:26:ed:fa:
                    70:2d
                Exponent: 65537 (0x10001)
        X509v3 extensions:
            X509v3 Key Usage: 
                Digital Signature, Key Encipherment
            X509v3 Basic Constraints: 
                CA:FALSE
            Netscape Cert Type: 
                SSL Server
            Netscape Comment: 
                OpenSSL Generated Server Certificate
            X509v3 Subject Key Identifier: 
                53:3F:ED:5D:09:07:B3:65:7B:AB:45:C9:24:5B:09:77:80:0A:96:ED
            X509v3 Authority Key Identifier: 
                keyid:F4:A7:C0:CC:91:46:AF:64:F3:91:F2:27:F8:C8:B2:6F:8A:87:32:73
                DirName:/C=DE/ST=Hessen/O=privacyidea/CN=CA001
                serial:FB:C8:EB:AC:83:CD:12:07

            X509v3 Extended Key Usage: 
                TLS Web Server Authentication
    Signature Algorithm: sha256WithRSAEncryption
         99:46:76:0d:85:88:f1:80:3d:d8:0c:fe:43:4c:ed:c5:6c:3f:
         1a:44:b9:f4:d0:fe:cf:56:5c:38:0b:c9:60:f7:b6:20:7b:cf:
         70:58:0f:b6:2e:ec:41:ec:35:9f:2b:b7:c8:af:f7:35:38:f6:
         26:b8:a1:da:19:0d:3c:19:24:c3:1d:64:85:1b:33:a2:ba:96:
         f1:7c:8e:91:e2:48:e0:17:af:32:5a:ef:06:4e:f6:d2:81:e2:
         57:cd:94:b0:0e:ec:52:97:03:35:7a:1e:e1:82:29:fe:1a:16:
         3c:23:29:6c:b8:54:67:13:be:f7:3e:25:f5:76:37:bb:10:73:
         75:44:b3:51:6a:f1:1b:b2:84:95:6a:6a:5e:c7:6c:f2:1d:80:
         48:e6:f4:9a:d3:5e:93:24:d9:98:40:17:60:c6:da:71:1c:c5:
         5c:eb:25:e7:7d:f6:af:6c:79:4c:f0:b6:87:9b:ec:52:61:24:
         3e:1d:69:4a:90:93:fe:2e:ba:dc:84:1e:24:32:a3:1b:2d:69:
         98:d4:11:f8:f6:25:1a:40:81:96:0e:d1:77:81:18:6e:29:f8:
         d1:b3:8a:47:c7:b2:91:99:df:95:ac:b8:2b:34:73:fc:df:05:
         79:35:9a:bd:41:53:1c:b8:c9:16:3a:c8:04:0c:35:56:5e:d5:
         55:e8:76:11
-----BEGIN CERTIFICATE-----
MIIEJjCCAw6gAwIBAgIEEAAA0DANBgkqhkiG9w0BAQsFADBEMQswCQYDVQQGEwJE
RTEPMA0GA1UECAwGSGVzc2VuMRQwEgYDVQQKDAtwcml2YWN5aWRlYTEOMAwGA1UE
AwwFQ0EwMDEwHhcNMTcwMjI1MDA1MDQzWhcNMTgwMjI1MDA1MDQzWjBUMQswCQYD
VQQGEwJERTEPMA0GA1UECAwGSGVzc2VuMRQwEgYDVQQKDAtwcml2YWN5aWRlYTEe
MBwGA1UEAwwVcmVxdWVzdGVyLmxvY2FsZG9tYWluMIIBIjANBgkqhkiG9w0BAQEF
AAOCAQ8AMIIBCgKCAQEAzb4UT/rOAT9CIhsdnK/dktJ/22y3PjlDQ2sTA/EF9Ad0
vHZpKAuvGY7X/OPNxljyyn8IbVP8BwJEJMa0NEyMBP4zDkDiILoCc1r39U9jbszG
tt9UHTc5fVE2Jl+93D+oi2uirrad1iHn30G4eigqaEjKqC3t4elGXlpybbSEOIeR
/ZQRCyiExsIvKvsB+TZ6CXXRM4g8c0FbyL+UiXCh8MC5LlBTHrEXZGn0LYHgqQ0O
Mum6VYqF8RtvSXm0f4jDDT5UiJs9HziMBPPuamMr9cbbtIOqxHhBOn1L4cg+ccob
YVnqxsTKMl7J6b8SKebGw2P+oFXaevFgmE0m7fpwLQIDAQABo4IBDjCCAQowCwYD
VR0PBAQDAgWgMAkGA1UdEwQCMAAwEQYJYIZIAYb4QgEBBAQDAgZAMDMGCWCGSAGG
+EIBDQQmFiRPcGVuU1NMIEdlbmVyYXRlZCBTZXJ2ZXIgQ2VydGlmaWNhdGUwHQYD
VR0OBBYEFFM/7V0JB7Nle6tFySRbCXeACpbtMHQGA1UdIwRtMGuAFPSnwMyRRq9k
85HyJ/jIsm+KhzJzoUikRjBEMQswCQYDVQQGEwJERTEPMA0GA1UECAwGSGVzc2Vu
MRQwEgYDVQQKDAtwcml2YWN5aWRlYTEOMAwGA1UEAwwFQ0EwMDGCCQD7yOusg80S
BzATBgNVHSUEDDAKBggrBgEFBQcDATANBgkqhkiG9w0BAQsFAAOCAQEAmUZ2DYWI
8YA92Az+Q0ztxWw/GkS59ND+z1ZcOAvJYPe2IHvPcFgPti7sQew1nyu3yK/3NTj2
Jrih2hkNPBkkwx1khRszorqW8XyOkeJI4BevMlrvBk720oHiV82UsA7sUpcDNXoe
4YIp/hoWPCMpbLhUZxO+9z4l9XY3uxBzdUSzUWrxG7KElWpqXsds8h2ASOb0mtNe
kyTZmEAXYMbacRzFXOsl5332r2x5TPC2h5vsUmEkPh1pSpCT/i663IQeJDKjGy1p
mNQR+PYlGkCBlg7Rd4EYbin40bOKR8eykZnflay4KzRz/N8FeTWavUFTHLjJFjrI
BAw1Vl7VVeh2EQ==
-----END CERTIFICATE-----
