Certificate:
    Data:
        Version: 3 (0x2)
        Serial Number: 268435681 (0x100000e1)
    Signature Algorithm: sha256WithRSAEncryption
        Issuer: C=DE, ST=Hessen, O=privacyidea, CN=CA001
        Validity
            Not Before: Feb 25 00:46:19 2017 GMT
            Not After : Feb 25 00:46:19 2018 GMT
        Subject: CN=Steve Test/emailAddress=steve@openssl.org
        Subject Public Key Info:
            Public Key Algorithm: rsaEncryption
                Public-Key: (2048 bit)
                Modulus:
                    00:d2:81:89:20:51:48:0f:73:f4:11:32:24:d5:1f:
                    1c:fd:5c:f5:b6:e6:c5:f0:52:81:dc:d2:af:66:4a:
                    7c:93:31:61:5c:af:d1:6d:06:70:03:60:7c:72:0c:
                    88:dd:49:cd:9e:02:6c:d2:5a:d7:53:0f:f3:da:be:
                    69:64:b5:0f:0c:00:e3:b3:50:47:a3:b3:9b:ba:13:
                    50:d6:58:5a:4b:ab:39:e0:11:ca:0a:27:67:03:78:
                    22:66:6d:92:1e:1b:5c:49:ae:e6:6b:d1:8e:3b:9d:
                    06:d3:c6:ac:4d:53:43:10:ab:e8:96:c1:87:82:97:
                    99:8f:20:d3:99:12:37:31:84:e1:8a:ff:29:03:5f:
                    22:90:3e:7f:9b:e0:20:c1:ad:dc:ae:4c:39:1a:31:
                    96:17:02:8c:b2:d9:b4:0d:20:12:9b:7d:86:54:fd:
                    33:fd:c1:2a:62:46:f8:60:96:cf:6e:01:6f:22:df:
                    13:47:e7:97:ec:05:72:23:a3:62:f8:fa:ef:ac:9c:
                    72:f0:37:cb:2f:37:cf:90:a8:27:51:86:c6:d7:78:
                    08:8f:7e:25:a2:15:70:a2:fb:1c:b6:15:5e:a0:97:
                    8b:81:4c:09:28:8a:27:3b:94:bc:71:db:5b:71:37:
                    9a:2b:16:e0:6f:b5:c9:f5:4b:4f:20:ba:65:cf:af:
                    ad:ad
                Exponent: 65537 (0x10001)
        X509v3 extensions:
            X509v3 Key Usage: 
                Digital Signature, Key Encipherment
            X509v3 Basic Constraints: 
                CA:FALSE
            Netscape Cert Type: 
                SSL Server
            Netscape Comment: 
                OpenSSL Generated Server Certificate
            X509v3 Subject Key Identifier: 
                E5:25:6D:3E:AF:0D:DD:3F:4C:F2:45:19:39:D5:14:DB:7E:9C:C0:AD
            X509v3 Authority Key Identifier: 
                keyid:F4:A7:C0:CC:91:46:AF:64:F3:91:F2:27:F8:C8:B2:6F:8A:87:32:73
                DirName:/C=DE/ST=Hessen/O=privacyidea/CN=CA001
                serial:FB:C8:EB:AC:83:CD:12:07

            X509v3 Extended Key Usage: 
                TLS Web Server Authentication
    Signature Algorithm: sha256WithRSAEncryption
         b2:2a:2e:9c:bf:5b:2a:77:ed:f0:26:67:2e:73:7d:da:68:4d:
         7b:57:da:16:ba:e7:d7:2b:1e:b2:cb:2a:6d:df:8c:0e:9c:55:
         c5:ea:20:94:5c:74:96:13:8f:1e:83:a1:62:ab:50:bb:88:f8:
         cd:bd:3d:d7:f8:5a:96:d0:d1:fa:eb:cb:b7:6c:ab:21:b0:7b:
         4a:8f:26:6f:26:37:84:9e:b7:ce:9f:9c:5a:60:79:cf:79:24:
         15:ec:64:e0:48:28:8a:d9:c1:21:7b:b4:03:7b:5d:a1:0a:0f:
         c6:ab:fd:e0:a5:28:2f:1d:f2:84:05:48:83:16:de:47:5f:2f:
         42:fc:cc:1e:e8:6d:0a:18:3b:d8:73:71:0e:9f:23:b4:54:18:
         1c:af:0b:db:82:29:fe:b3:d7:46:08:b2:6a:5b:88:a0:aa:fb:
         ff:c1:e7:e9:a6:6c:2b:d8:bb:95:53:9c:7a:a2:e3:a4:34:d0:
         af:49:7e:05:f7:25:c4:e5:f8:74:ae:94:e3:a3:57:a3:2b:67:
         b0:df:10:f2:8c:c5:b8:74:cf:45:ca:69:3b:85:02:e1:19:dd:
         ab:94:56:24:90:0c:c6:b2:c3:e8:13:8b:a4:d6:a3:7a:8f:ac:
         1f:e1:e6:b2:92:df:f1:cc:2c:62:80:c3:f8:9b:30:aa:b2:ac:
         f8:21:5a:a0
-----BEGIN CERTIFICATE-----
MIIECTCCAvGgAwIBAgIEEAAA4TANBgkqhkiG9w0BAQsFADBEMQswCQYDVQQGEwJE
RTEPMA0GA1UECAwGSGVzc2VuMRQwEgYDVQQKDAtwcml2YWN5aWRlYTEOMAwGA1UE
AwwFQ0EwMDEwHhcNMTcwMjI1MDA0NjE5WhcNMTgwMjI1MDA0NjE5WjA3MRMwEQYD
VQQDDApTdGV2ZSBUZXN0MSAwHgYJKoZIhvcNAQkBFhFzdGV2ZUBvcGVuc3NsLm9y
ZzCCASIwDQYJKoZIhvcNAQEBBQADggEPADCCAQoCggEBANKBiSBRSA9z9BEyJNUf
HP1c9bbmxfBSgdzSr2ZKfJMxYVyv0W0GcANgfHIMiN1JzZ4CbNJa11MP89q+aWS1
DwwA47NQR6Ozm7oTUNZYWkurOeARygonZwN4ImZtkh4bXEmu5mvRjjudBtPGrE1T
QxCr6JbBh4KXmY8g05kSNzGE4Yr/KQNfIpA+f5vgIMGt3K5MORoxlhcCjLLZtA0g
Ept9hlT9M/3BKmJG+GCWz24BbyLfE0fnl+wFciOjYvj676yccvA3yy83z5CoJ1GG
xtd4CI9+JaIVcKL7HLYVXqCXi4FMCSiKJzuUvHHbW3E3misW4G+1yfVLTyC6Zc+v
ra0CAwEAAaOCAQ4wggEKMAsGA1UdDwQEAwIFoDAJBgNVHRMEAjAAMBEGCWCGSAGG
+EIBAQQEAwIGQDAzBglghkgBhvhCAQ0EJhYkT3BlblNTTCBHZW5lcmF0ZWQgU2Vy
dmVyIENlcnRpZmljYXRlMB0GA1UdDgQWBBTlJW0+rw3dP0zyRRk51RTbfpzArTB0
BgNVHSMEbTBrgBT0p8DMkUavZPOR8if4yLJviocyc6FIpEYwRDELMAkGA1UEBhMC
REUxDzANBgNVBAgMBkhlc3NlbjEUMBIGA1UECgwLcHJpdmFjeWlkZWExDjAMBgNV
BAMMBUNBMDAxggkA+8jrrIPNEgcwEwYDVR0lBAwwCgYIKwYBBQUHAwEwDQYJKoZI
hvcNAQELBQADggEBALIqLpy/Wyp37fAmZy5zfdpoTXtX2ha659crHrLLKm3fjA6c
VcXqIJRcdJYTjx6DoWKrULuI+M29Pdf4WpbQ0frry7dsqyGwe0qPJm8mN4Set86f
nFpgec95JBXsZOBIKIrZwSF7tAN7XaEKD8ar/eClKC8d8oQFSIMW3kdfL0L8zB7o
bQoYO9hzcQ6fI7RUGByvC9uCKf6z10YIsmpbiKCq+//B5+mmbCvYu5VTnHqi46Q0
0K9JfgX3JcTl+HSulOOjV6MrZ7DfEPKMxbh0z0XKaTuFAuEZ3auUViSQDMayw+gT
i6TWo3qPrB/h5rKS3/HMLGKAw/ibMKqyrPghWqA=
-----END CERTIFICATE-----
