Certificate:
    Data:
        Version: 3 (0x2)
        Serial Number: 268435675 (0x100000db)
    Signature Algorithm: sha256WithRSAEncryption
        Issuer: C=DE, ST=Hessen, O=privacyidea, CN=CA001
        Validity
            Not Before: Feb 25 00:44:20 2017 GMT
            Not After : Feb 25 00:44:20 2018 GMT
        Subject: C=DE, ST=Hessen, O=privacyidea, CN=requester.localdomain
        Subject Public Key Info:
            Public Key Algorithm: rsaEncryption
                Public-Key: (2048 bit)
                Modulus:
                    00:cd:be:14:4f:fa:ce:01:3f:42:22:1b:1d:9c:af:
                    dd:92:d2:7f:db:6c:b7:3e:39:43:43:6b:13:03:f1:
                    05:f4:07:74:bc:76:69:28:0b:af:19:8e:d7:fc:e3:
                    cd:c6:58:f2:ca:7f:08:6d:53:fc:07:02:44:24:c6:
                    b4:34:4c:8c:04:fe:33:0e:40:e2:20:ba:02:73:5a:
                    f7:f5:4f:63:6e:cc:c6:b6:df:54:1d:37:39:7d:51:
                    36:26:5f:bd:dc:3f:a8:8b:6b:a2:ae:b6:9d:d6:21:
                    e7:df:41:b8:7a:28:2a:68:48:ca:a8:2d:ed:e1:e9:
                    46:5e:5a:72:6d:b4:84:38:87:91:fd:94:11:0b:28:
                    84:c6:c2:2f:2a:fb:01:f9:36:7a:09:75:d1:33:88:
                    3c:73:41:5b:c8:bf:94:89:70:a1:f0:c0:b9:2e:50:
                    53:1e:b1:17:64:69:f4:2d:81:e0:a9:0d:0e:32:e9:
                    ba:55:8a:85:f1:1b:6f:49:79:b4:7f:88:c3:0d:3e:
                    54:88:9b:3d:1f:38:8c:04:f3:ee:6a:63:2b:f5:c6:
                    db:b4:83:aa:c4:78:41:3a:7d:4b:e1:c8:3e:71:ca:
                    1b:61:59:ea:c6:c4:ca:32:5e:c9:e9:bf:12:29:e6:
                    c6:c3:63:fe:a0:55:da:7a:f1:60:98:4d:26:ed:fa:
                    70:2d
                Exponent: 65537 (0x10001)
        X509v3 extensions:
            X509v3 Key Usage: 
                Digital Signature, Key Encipherment
            X509v3 Basic Constraints: 
                CA:FALSE
            Netscape Cert Type: 
                SSL Server
            Netscape Comment: 
                OpenSSL Generated Server Certificate
            X509v3 Subject Key Identifier: 
                53:3F:ED:5D:09:07:B3:65:7B:AB:45:C9:24:5B:09:77:80:0A:96:ED
            X509v3 Authority Key Identifier: 
                keyid:F4:A7:C0:CC:91:46:AF:64:F3:91:F2:27:F8:C8:B2:6F:8A:87:32:73
                DirName:/C=DE/ST=Hessen/O=privacyidea/CN=CA001
                serial:FB:C8:EB:AC:83:CD:12:07

            X509v3 Extended Key Usage: 
                TLS Web Server Authentication
    Signature Algorithm: sha256WithRSAEncryption
         3f:b9:76:4d:cf:b7:bf:19:f4:ea:84:b4:3f:c4:77:96:ec:c6:
         92:96:83:77:ca:2f:65:b6:36:bb:c5:c8:54:6f:50:3c:47:f2:
         1d:a0:76:b9:d3:c5:54:4e:dd:e1:4a:ab:ad:24:f4:a3:fa:17:
         c5:52:5a:4c:fc:4d:ba:57:28:22:88:32:33:5b:7b:c8:a8:93:
         79:5a:4f:63:a1:50:8f:81:2b:e5:d8:33:b7:b9:fa:99:8c:b4:
         d0:f6:5c:b8:10:6e:da:b3:fd:45:dd:8b:88:8c:80:d1:f6:88:
         b6:4c:67:92:ec:56:8e:c2:09:de:cb:2b:08:98:7c:c4:96:61:
         cf:2e:02:c7:0f:1d:40:2f:15:81:88:13:f4:c2:d7:e3:89:15:
         c5:b3:5b:31:c4:40:ac:9c:a5:1d:6e:5f:7a:ce:09:29:62:08:
         42:b8:2f:4f:b9:13:28:d5:a0:be:a4:8d:97:53:0f:7b:e0:e0:
         0d:e9:ee:b4:af:9e:8f:af:60:a4:9d:db:50:51:58:5f:21:71:
         f9:85:63:ce:ce:a8:e1:ce:2e:59:93:35:a1:3c:16:6a:48:db:
         32:b9:22:e1:d3:07:19:c6:c5:fb:b0:db:4f:5d:1f:26:29:c7:
         df:42:4b:2c:25:7e:fc:b8:60:ea:dc:b0:be:c4:1e:29:85:1e:
         94:ab:68:0d
-----BEGIN CERTIFICATE-----
MIIEJjCCAw6gAwIBAgIEEAAA2zANBgkqhkiG9w0BAQsFADBEMQswCQYDVQQGEwJE
RTEPMA0GA1UECAwGSGVzc2VuMRQwEgYDVQQKDAtwcml2YWN5aWRlYTEOMAwGA1UE
AwwFQ0EwMDEwHhcNMTcwMjI1MDA0NDIwWhcNMTgwMjI1MDA0NDIwWjBUMQswCQYD
VQQGEwJERTEPMA0GA1UECAwGSGVzc2VuMRQwEgYDVQQKDAtwcml2YWN5aWRlYTEe
MBwGA1UEAwwVcmVxdWVzdGVyLmxvY2FsZG9tYWluMIIBIjANBgkqhkiG9w0BAQEF
AAOCAQ8AMIIBCgKCAQEAzb4UT/rOAT9CIhsdnK/dktJ/22y3PjlDQ2sTA/EF9Ad0
vHZpKAuvGY7X/OPNxljyyn8IbVP8BwJEJMa0NEyMBP4zDkDiILoCc1r39U9jbszG
tt9UHTc5fVE2Jl+93D+oi2uirrad1iHn30G4eigqaEjKqC3t4elGXlpybbSEOIeR
/ZQRCyiExsIvKvsB+TZ6CXXRM4g8c0FbyL+UiXCh8MC5LlBTHrEXZGn0LYHgqQ0O
Mum6VYqF8RtvSXm0f4jDDT5UiJs9HziMBPPuamMr9cbbtIOqxHhBOn1L4cg+ccob
YVnqxsTKMl7J6b8SKebGw2P+oFXaevFgmE0m7fpwLQIDAQABo4IBDjCCAQowCwYD
VR0PBAQDAgWgMAkGA1UdEwQCMAAwEQYJYIZIAYb4QgEBBAQDAgZAMDMGCWCGSAGG
+EIBDQQmFiRPcGVuU1NMIEdlbmVyYXRlZCBTZXJ2ZXIgQ2VydGlmaWNhdGUwHQYD
VR0OBBYEFFM/7V0JB7Nle6tFySRbCXeACpbtMHQGA1UdIwRtMGuAFPSnwMyRRq9k
85HyJ/jIsm+KhzJzoUikRjBEMQswCQYDVQQGEwJERTEPMA0GA1UECAwGSGVzc2Vu
MRQwEgYDVQQKDAtwcml2YWN5aWRlYTEOMAwGA1UEAwwFQ0EwMDGCCQD7yOusg80S
BzATBgNVHSUEDDAKBggrBgEFBQcDATANBgkqhkiG9w0BAQsFAAOCAQEAP7l2Tc+3
vxn06oS0P8R3luzGkpaDd8ovZbY2u8XIVG9QPEfyHaB2udPFVE7d4UqrrST0o/oX
xVJaTPxNulcoIogyM1t7yKiTeVpPY6FQj4Er5dgzt7n6mYy00PZcuBBu2rP9Rd2L
iIyA0faItkxnkuxWjsIJ3ssrCJh8xJZhzy4Cxw8dQC8VgYgT9MLX44kVxbNbMcRA
rJylHW5fes4JKWIIQrgvT7kTKNWgvqSNl1MPe+DgDenutK+ej69gpJ3bUFFYXyFx
+YVjzs6o4c4uWZM1oTwWakjbMrki4dMHGcbF+7DbT10fJinH30JLLCV+/Lhg6tyw
vsQeKYUelKtoDQ==
-----END CERTIFICATE-----
