Certificate:
    Data:
        Version: 3 (0x2)
        Serial Number: 268435672 (0x100000d8)
    Signature Algorithm: sha256WithRSAEncryption
        Issuer: C=DE, ST=Hessen, O=privacyidea, CN=CA001
        Validity
            Not Before: Feb 25 00:40:27 2017 GMT
            Not After : Feb 25 00:40:27 2018 GMT
        Subject: C=DE, ST=Hessen, O=privacyidea, CN=usercert
        Subject Public Key Info:
            Public Key Algorithm: rsaEncryption
                Public-Key: (2048 bit)
                Modulus:
                    00:dc:2f:d1:5f:29:97:d4:7c:c3:53:c8:30:bd:4b:
                    67:70:2c:24:6b:b8:5e:eb:21:7a:48:12:56:7c:81:
                    5c:48:75:b6:68:eb:f6:f2:98:4e:50:51:d1:7f:6c:
                    73:f3:0a:a7:ae:be:48:5e:e5:d6:e1:d9:2a:7c:32:
                    6e:4e:fd:08:f6:5a:54:49:23:73:c3:b9:07:18:d1:
                    ef:b3:ac:f8:8a:dc:94:96:a4:90:3a:8e:74:df:e6:
                    0d:37:1b:bd:5b:b7:25:1a:56:39:da:6f:91:aa:5e:
                    1c:74:f3:f9:7c:14:01:83:12:65:76:c7:bb:fe:36:
                    5b:95:e9:72:65:83:ed:3e:98:30:71:fa:87:dd:a3:
                    36:5a:30:03:2e:26:e0:61:d1:bf:02:3f:b6:06:1f:
                    4a:89:28:1c:5c:a2:ff:4e:be:94:e6:8c:e0:da:82:
                    f1:9d:29:32:48:30:73:b4:04:f6:42:1e:be:f7:e2:
                    32:32:27:3c:9d:89:2f:70:3e:85:9a:6f:5c:c5:09:
                    c0:8c:32:2f:72:22:c9:d2:95:1f:b6:ac:72:60:72:
                    b7:82:4d:6b:ce:5b:e3:00:d0:d2:2f:58:c6:e0:10:
                    e5:51:ca:4d:3b:2e:e6:7e:ab:84:d6:56:f1:93:35:
                    a0:93:64:26:81:75:2f:91:b5:16:06:38:0b:db:cc:
                    2d:07
                Exponent: 65537 (0x10001)
        X509v3 extensions:
            X509v3 Key Usage: 
                Digital Signature, Key Encipherment
            X509v3 Basic Constraints: 
                CA:FALSE
            Netscape Cert Type: 
                SSL Server
            Netscape Comment: 
                OpenSSL Generated Server Certificate
            X509v3 Subject Key Identifier: 
                FC:14:D1:F0:4B:8D:00:90:F2:F5:B8:71:9E:4E:97:C3:92:54:AD:0B
            X509v3 Authority Key Identifier: 
                keyid:F4:A7:C0:CC:91:46:AF:64:F3:91:F2:27:F8:C8:B2:6F:8A:87:32:73
                DirName:/C=DE/ST=Hessen/O=privacyidea/CN=CA001
                serial:FB:C8:EB:AC:83:CD:12:07

            X509v3 Extended Key Usage: 
                TLS Web Server Authentication
    Signature Algorithm: sha256WithRSAEncryption
         84:87:60:0f:13:e3:42:a2:0f:41:41:7c:6e:60:5a:d8:74:bc:
         ff:5d:53:ef:65:48:c2:c9:56:b0:bc:61:ec:34:40:2e:cd:da:
         b4:00:12:7c:48:0f:0b:00:61:b5:5f:8d:84:e6:52:7c:ff:6f:
         2e:d9:43:83:80:13:40:9d:83:d0:c4:1f:e9:bd:29:ba:d9:31:
         3e:f4:57:cd:b5:bc:0a:d8:1e:02:2b:4e:0c:99:e0:4c:18:35:
         fb:c1:68:b9:0c:74:e3:7a:90:81:33:47:84:ec:29:6c:6a:33:
         52:81:df:1d:ff:2e:e7:33:10:40:cf:5d:f6:30:f5:d8:ff:54:
         e2:f1:a6:32:d4:70:a2:52:41:de:a3:2c:1f:85:4f:6e:ae:8a:
         70:f1:48:09:ed:ee:1d:8d:f9:e6:2a:41:4b:01:e3:b9:1f:86:
         ce:22:57:f9:30:38:03:f8:34:7b:74:e9:f3:82:9d:7b:0e:57:
         69:0c:00:38:1f:f5:be:0e:29:32:3a:c4:da:a1:eb:0e:f2:9e:
         b6:d1:09:9f:9c:ef:8b:b5:4d:06:1c:58:e8:95:bb:3f:9d:cb:
         fe:67:b3:f5:88:54:09:21:d5:a0:f6:3a:8d:89:69:e9:64:ab:
         bd:18:67:f2:20:8c:fa:ce:fb:f8:e1:96:1d:52:a0:33:67:b2:
         8b:29:b3:d6
-----BEGIN CERTIFICATE-----
MIIEGTCCAwGgAwIBAgIEEAAA2DANBgkqhkiG9w0BAQsFADBEMQswCQYDVQQGEwJE
RTEPMA0GA1UECAwGSGVzc2VuMRQwEgYDVQQKDAtwcml2YWN5aWRlYTEOMAwGA1UE
AwwFQ0EwMDEwHhcNMTcwMjI1MDA0MDI3WhcNMTgwMjI1MDA0MDI3WjBHMQswCQYD
VQQGEwJERTEPMA0GA1UECAwGSGVzc2VuMRQwEgYDVQQKDAtwcml2YWN5aWRlYTER
MA8GA1UEAwwIdXNlcmNlcnQwggEiMA0GCSqGSIb3DQEBAQUAA4IBDwAwggEKAoIB
AQDcL9FfKZfUfMNTyDC9S2dwLCRruF7rIXpIElZ8gVxIdbZo6/bymE5QUdF/bHPz
Cqeuvkhe5dbh2Sp8Mm5O/Qj2WlRJI3PDuQcY0e+zrPiK3JSWpJA6jnTf5g03G71b
tyUaVjnab5GqXhx08/l8FAGDEmV2x7v+NluV6XJlg+0+mDBx+ofdozZaMAMuJuBh
0b8CP7YGH0qJKBxcov9OvpTmjODagvGdKTJIMHO0BPZCHr734jIyJzydiS9wPoWa
b1zFCcCMMi9yIsnSlR+2rHJgcreCTWvOW+MA0NIvWMbgEOVRyk07LuZ+q4TWVvGT
NaCTZCaBdS+RtRYGOAvbzC0HAgMBAAGjggEOMIIBCjALBgNVHQ8EBAMCBaAwCQYD
VR0TBAIwADARBglghkgBhvhCAQEEBAMCBkAwMwYJYIZIAYb4QgENBCYWJE9wZW5T
U0wgR2VuZXJhdGVkIFNlcnZlciBDZXJ0aWZpY2F0ZTAdBgNVHQ4EFgQU/BTR8EuN
AJDy9bhxnk6Xw5JUrQswdAYDVR0jBG0wa4AU9KfAzJFGr2TzkfIn+Miyb4qHMnOh
SKRGMEQxCzAJBgNVBAYTAkRFMQ8wDQYDVQQIDAZIZXNzZW4xFDASBgNVBAoMC3By
aXZhY3lpZGVhMQ4wDAYDVQQDDAVDQTAwMYIJAPvI66yDzRIHMBMGA1UdJQQMMAoG
CCsGAQUFBwMBMA0GCSqGSIb3DQEBCwUAA4IBAQCEh2APE+NCog9BQXxuYFrYdLz/
XVPvZUjCyVawvGHsNEAuzdq0ABJ8SA8LAGG1X42E5lJ8/28u2UODgBNAnYPQxB/p
vSm62TE+9FfNtbwK2B4CK04MmeBMGDX7wWi5DHTjepCBM0eE7ClsajNSgd8d/y7n
MxBAz132MPXY/1Ti8aYy1HCiUkHeoywfhU9uropw8UgJ7e4djfnmKkFLAeO5H4bO
Ilf5MDgD+DR7dOnzgp17DldpDAA4H/W+DikyOsTaoesO8p620QmfnO+LtU0GHFjo
lbs/ncv+Z7P1iFQJIdWg9jqNiWnpZKu9GGfyIIz6zvv44ZYdUqAzZ7KLKbPW
-----END CERTIFICATE-----
