Certificate:
    Data:
        Version: 3 (0x2)
        Serial Number: 268435670 (0x100000d6)
    Signature Algorithm: sha256WithRSAEncryption
        Issuer: C=DE, ST=Hessen, O=privacyidea, CN=CA001
        Validity
            Not Before: Feb 25 00:56:01 2017 GMT
            Not After : Feb 25 00:56:01 2018 GMT
        Subject: OU=realm1, CN=cornelius/emailAddress=user@localhost.localdomain
        Subject Public Key Info:
            Public Key Algorithm: rsaEncryption
                Public-Key: (2048 bit)
                Modulus:
                    00:ed:c7:be:e2:f2:f7:2a:0b:83:80:b3:00:85:35:
                    0c:49:25:d2:04:ae:f9:c1:06:cf:af:e8:32:31:71:
                    8d:d3:7e:48:cc:7d:c8:7f:dc:fd:f3:2c:71:d7:9e:
                    75:e9:e3:0f:ca:06:7f:a6:b8:d6:57:b7:b1:26:1d:
                    28:7d:07:f5:67:0e:49:bc:93:09:c5:5c:47:0f:50:
                    f9:e7:a5:1a:4c:0f:a7:b5:98:c7:8b:8d:bf:1d:f1:
                    0b:72:9d:72:df:d1:72:1b:e3:5b:9d:7b:4f:fb:21:
                    ec:22:1a:f4:27:c5:2c:5d:c2:ed:48:79:32:4c:b1:
                    98:90:2c:d5:fe:99:06:a1:17:17:41:48:8f:94:46:
                    ff:d4:1e:e2:8e:38:92:52:48:8d:6f:f6:5b:4b:c3:
                    e7:93:79:16:21:64:cf:c7:d9:0b:11:fb:d3:36:b8:
                    42:56:38:d4:cc:74:f9:95:db:8b:77:07:a7:0e:1b:
                    8a:9b:da:8e:1d:79:45:7c:aa:ba:dc:2c:44:ec:c3:
                    06:81:c5:8c:9c:6b:22:f5:f1:8f:eb:83:b3:54:0f:
                    9e:a5:bd:78:43:45:d4:cd:4b:97:40:77:24:c3:cc:
                    a5:49:e4:ea:a7:81:4c:07:80:1f:ae:c6:3e:b7:49:
                    3f:a5:54:f6:b0:8f:d7:63:44:ce:35:ed:8c:79:81:
                    cd:19
                Exponent: 65537 (0x10001)
        X509v3 extensions:
            X509v3 Key Usage: 
                Digital Signature, Key Encipherment
            X509v3 Basic Constraints: 
                CA:FALSE
            Netscape Cert Type: 
                SSL Server
            Netscape Comment: 
                OpenSSL Generated Server Certificate
            X509v3 Subject Key Identifier: 
                0F:C4:BF:23:74:53:21:58:78:54:F2:B7:E7:09:06:0A:8C:11:37:9A
            X509v3 Authority Key Identifier: 
                keyid:F4:A7:C0:CC:91:46:AF:64:F3:91:F2:27:F8:C8:B2:6F:8A:87:32:73
                DirName:/C=DE/ST=Hessen/O=privacyidea/CN=CA001
                serial:FB:C8:EB:AC:83:CD:12:07

            X509v3 Extended Key Usage: 
                TLS Web Server Authentication
    Signature Algorithm: sha256WithRSAEncryption
         3a:b7:8e:22:9e:ac:ec:53:bf:15:1b:0c:4e:65:7e:ea:d4:29:
         40:a6:5c:e1:32:d8:43:11:c3:54:78:2a:bb:7a:36:64:30:03:
         87:26:6e:a1:61:61:39:af:9c:f4:2e:76:df:35:e1:6d:d5:8d:
         f2:22:00:ad:e8:29:d1:80:5e:51:9b:d8:1c:3c:ce:ce:09:86:
         9a:0c:fb:68:1e:13:6e:66:24:a5:50:b1:22:01:f3:b9:37:d3:
         1b:d9:73:7b:8b:e1:5a:d7:b0:34:c3:b2:34:d2:56:99:2c:ae:
         ad:7b:b9:8a:ef:c7:1c:34:b1:b2:05:04:4b:bc:3a:a7:9b:5b:
         24:a2:b0:05:e5:a9:79:6a:02:8f:59:ce:51:af:52:60:c8:ae:
         e5:f8:ed:2d:a1:53:b9:33:73:82:cf:86:11:a8:89:46:bd:80:
         a3:b0:a9:7b:45:94:d2:34:82:e9:a8:69:bd:58:18:90:83:72:
         2b:ae:08:4b:7c:da:be:48:78:71:55:55:20:8c:a7:de:a1:86:
         89:8f:7e:6b:aa:fb:f6:11:cc:20:f7:2b:dd:71:dc:16:2d:33:
         64:d0:49:7c:a3:40:fe:b1:cd:70:c1:3a:95:5a:b8:ab:bd:32:
         c0:b8:85:b8:7d:84:1a:bd:7d:e7:47:5d:d9:2a:2c:86:8e:19:
         27:d8:ae:7d
-----BEGIN CERTIFICATE-----
MIIEIjCCAwqgAwIBAgIEEAAA1jANBgkqhkiG9w0BAQsFADBEMQswCQYDVQQGEwJE
RTEPMA0GA1UECAwGSGVzc2VuMRQwEgYDVQQKDAtwcml2YWN5aWRlYTEOMAwGA1UE
AwwFQ0EwMDEwHhcNMTcwMjI1MDA1NjAxWhcNMTgwMjI1MDA1NjAxWjBQMQ8wDQYD
VQQLDAZyZWFsbTExEjAQBgNVBAMMCWNvcm5lbGl1czEpMCcGCSqGSIb3DQEJARYa
dXNlckBsb2NhbGhvc3QubG9jYWxkb21haW4wggEiMA0GCSqGSIb3DQEBAQUAA4IB
DwAwggEKAoIBAQDtx77i8vcqC4OAswCFNQxJJdIErvnBBs+v6DIxcY3TfkjMfch/
3P3zLHHXnnXp4w/KBn+muNZXt7EmHSh9B/VnDkm8kwnFXEcPUPnnpRpMD6e1mMeL
jb8d8QtynXLf0XIb41ude0/7IewiGvQnxSxdwu1IeTJMsZiQLNX+mQahFxdBSI+U
Rv/UHuKOOJJSSI1v9ltLw+eTeRYhZM/H2QsR+9M2uEJWONTMdPmV24t3B6cOG4qb
2o4deUV8qrrcLETswwaBxYycayL18Y/rg7NUD56lvXhDRdTNS5dAdyTDzKVJ5Oqn
gUwHgB+uxj63ST+lVPawj9djRM417Yx5gc0ZAgMBAAGjggEOMIIBCjALBgNVHQ8E
BAMCBaAwCQYDVR0TBAIwADARBglghkgBhvhCAQEEBAMCBkAwMwYJYIZIAYb4QgEN
BCYWJE9wZW5TU0wgR2VuZXJhdGVkIFNlcnZlciBDZXJ0aWZpY2F0ZTAdBgNVHQ4E
FgQUD8S/I3RTIVh4VPK35wkGCowRN5owdAYDVR0jBG0wa4AU9KfAzJFGr2TzkfIn
+Miyb4qHMnOhSKRGMEQxCzAJBgNVBAYTAkRFMQ8wDQYDVQQIDAZIZXNzZW4xFDAS
BgNVBAoMC3ByaXZhY3lpZGVhMQ4wDAYDVQQDDAVDQTAwMYIJAPvI66yDzRIHMBMG
A1UdJQQMMAoGCCsGAQUFBwMBMA0GCSqGSIb3DQEBCwUAA4IBAQA6t44inqzsU78V
GwxOZX7q1ClAplzhMthDEcNUeCq7ejZkMAOHJm6hYWE5r5z0LnbfNeFt1Y3yIgCt
6CnRgF5Rm9gcPM7OCYaaDPtoHhNuZiSlULEiAfO5N9Mb2XN7i+Fa17A0w7I00laZ
LK6te7mK78ccNLGyBQRLvDqnm1skorAF5al5agKPWc5Rr1JgyK7l+O0toVO5M3OC
z4YRqIlGvYCjsKl7RZTSNILpqGm9WBiQg3IrrghLfNq+SHhxVVUgjKfeoYaJj35r
qvv2Ecwg9yvdcdwWLTNk0El8o0D+sc1wwTqVWrirvTLAuIW4fYQavX3nR13ZKiyG
jhkn2K59
-----END CERTIFICATE-----
