Certificate:
    Data:
        Version: 3 (0x2)
        Serial Number: 268435666 (0x100000d2)
    Signature Algorithm: sha256WithRSAEncryption
        Issuer: C=DE, ST=Hessen, O=privacyidea, CN=CA001
        Validity
            Not Before: Feb 25 00:52:18 2017 GMT
            Not After : Feb 25 00:52:18 2018 GMT
        Subject: C=DE, ST=Hessen, O=privacyidea, CN=usercert
        Subject Public Key Info:
            Public Key Algorithm: rsaEncryption
                Public-Key: (2048 bit)
                Modulus:
                    00:dc:2f:d1:5f:29:97:d4:7c:c3:53:c8:30:bd:4b:
                    67:70:2c:24:6b:b8:5e:eb:21:7a:48:12:56:7c:81:
                    5c:48:75:b6:68:eb:f6:f2:98:4e:50:51:d1:7f:6c:
                    73:f3:0a:a7:ae:be:48:5e:e5:d6:e1:d9:2a:7c:32:
                    6e:4e:fd:08:f6:5a:54:49:23:73:c3:b9:07:18:d1:
                    ef:b3:ac:f8:8a:dc:94:96:a4:90:3a:8e:74:df:e6:
                    0d:37:1b:bd:5b:b7:25:1a:56:39:da:6f:91:aa:5e:
                    1c:74:f3:f9:7c:14:01:83:12:65:76:c7:bb:fe:36:
                    5b:95:e9:72:65:83:ed:3e:98:30:71:fa:87:dd:a3:
                    36:5a:30:03:2e:26:e0:61:d1:bf:02:3f:b6:06:1f:
                    4a:89:28:1c:5c:a2:ff:4e:be:94:e6:8c:e0:da:82:
                    f1:9d:29:32:48:30:73:b4:04:f6:42:1e:be:f7:e2:
                    32:32:27:3c:9d:89:2f:70:3e:85:9a:6f:5c:c5:09:
                    c0:8c:32:2f:72:22:c9:d2:95:1f:b6:ac:72:60:72:
                    b7:82:4d:6b:ce:5b:e3:00:d0:d2:2f:58:c6:e0:10:
                    e5:51:ca:4d:3b:2e:e6:7e:ab:84:d6:56:f1:93:35:
                    a0:93:64:26:81:75:2f:91:b5:16:06:38:0b:db:cc:
                    2d:07
                Exponent: 65537 (0x10001)
        X509v3 extensions:
            X509v3 Key Usage: 
                Digital Signature, Key Encipherment
            X509v3 Basic Constraints: 
                CA:FALSE
            Netscape Cert Type: 
                SSL Server
            Netscape Comment: 
                OpenSSL Generated Server Certificate
            X509v3 Subject Key Identifier: 
                FC:14:D1:F0:4B:8D:00:90:F2:F5:B8:71:9E:4E:97:C3:92:54:AD:0B
            X509v3 Authority Key Identifier: 
                keyid:F4:A7:C0:CC:91:46:AF:64:F3:91:F2:27:F8:C8:B2:6F:8A:87:32:73
                DirName:/C=DE/ST=Hessen/O=privacyidea/CN=CA001
                serial:FB:C8:EB:AC:83:CD:12:07

            X509v3 Extended Key Usage: 
                TLS Web Server Authentication
    Signature Algorithm: sha256WithRSAEncryption
         57:bb:ac:29:62:43:86:49:9a:37:73:59:68:ff:ed:85:60:eb:
         83:b1:5d:7d:35:c2:87:43:75:89:f0:88:bc:3f:8c:6e:65:f7:
         ca:27:24:bd:72:5a:db:13:b6:ad:10:35:1b:b8:47:c6:79:9a:
         d2:4b:62:95:e1:71:49:6f:2d:2e:ce:c0:b8:57:66:a6:d1:64:
         cc:17:b1:b5:53:0f:63:ee:d0:83:63:40:c0:62:18:25:48:9d:
         47:a9:13:83:4d:d6:38:75:5d:fc:8f:9d:ad:97:f7:94:21:9c:
         9d:bd:68:0b:41:79:7e:f6:e9:6a:27:30:81:18:29:98:2e:26:
         28:a7:3b:ce:5c:2a:1a:a3:4f:e0:83:28:50:7e:70:c8:16:c1:
         19:ab:27:31:15:20:27:4d:06:da:9d:35:1f:9d:5f:31:7e:4a:
         05:24:7e:6f:b4:54:82:5f:ea:85:dd:4f:05:a6:12:87:d8:c3:
         91:34:fa:6a:d2:b8:0d:cb:ac:ae:fb:c3:e4:a7:5a:5b:d2:0a:
         c6:db:56:2d:6a:f5:7e:33:4f:be:39:d9:e3:c7:b5:e1:1f:2c:
         9f:27:cd:93:83:ab:35:f8:8b:9c:44:4f:47:4d:f6:d4:0c:47:
         20:10:df:58:94:61:57:32:18:0e:76:8f:bb:02:70:7f:29:1f:
         b1:f4:d2:fe
-----BEGIN CERTIFICATE-----
MIIEGTCCAwGgAwIBAgIEEAAA0jANBgkqhkiG9w0BAQsFADBEMQswCQYDVQQGEwJE
RTEPMA0GA1UECAwGSGVzc2VuMRQwEgYDVQQKDAtwcml2YWN5aWRlYTEOMAwGA1UE
AwwFQ0EwMDEwHhcNMTcwMjI1MDA1MjE4WhcNMTgwMjI1MDA1MjE4WjBHMQswCQYD
VQQGEwJERTEPMA0GA1UECAwGSGVzc2VuMRQwEgYDVQQKDAtwcml2YWN5aWRlYTER
MA8GA1UEAwwIdXNlcmNlcnQwggEiMA0GCSqGSIb3DQEBAQUAA4IBDwAwggEKAoIB
AQDcL9FfKZfUfMNTyDC9S2dwLCRruF7rIXpIElZ8gVxIdbZo6/bymE5QUdF/bHPz
Cqeuvkhe5dbh2Sp8Mm5O/Qj2WlRJI3PDuQcY0e+zrPiK3JSWpJA6jnTf5g03G71b
tyUaVjnab5GqXhx08/l8FAGDEmV2x7v+NluV6XJlg+0+mDBx+ofdozZaMAMuJuBh
0b8CP7YGH0qJKBxcov9OvpTmjODagvGdKTJIMHO0BPZCHr734jIyJzydiS9wPoWa
b1zFCcCMMi9yIsnSlR+2rHJgcreCTWvOW+MA0NIvWMbgEOVRyk07LuZ+q4TWVvGT
NaCTZCaBdS+RtRYGOAvbzC0HAgMBAAGjggEOMIIBCjALBgNVHQ8EBAMCBaAwCQYD
VR0TBAIwADARBglghkgBhvhCAQEEBAMCBkAwMwYJYIZIAYb4QgENBCYWJE9wZW5T
U0wgR2VuZXJhdGVkIFNlcnZlciBDZXJ0aWZpY2F0ZTAdBgNVHQ4EFgQU/BTR8EuN
AJDy9bhxnk6Xw5JUrQswdAYDVR0jBG0wa4AU9KfAzJFGr2TzkfIn+Miyb4qHMnOh
SKRGMEQxCzAJBgNVBAYTAkRFMQ8wDQYDVQQIDAZIZXNzZW4xFDASBgNVBAoMC3By
aXZhY3lpZGVhMQ4wDAYDVQQDDAVDQTAwMYIJAPvI66yDzRIHMBMGA1UdJQQMMAoG
CCsGAQUFBwMBMA0GCSqGSIb3DQEBCwUAA4IBAQBXu6wpYkOGSZo3c1lo/+2FYOuD
sV19NcKHQ3WJ8Ii8P4xuZffKJyS9clrbE7atEDUbuEfGeZrSS2KV4XFJby0uzsC4
V2am0WTMF7G1Uw9j7tCDY0DAYhglSJ1HqRODTdY4dV38j52tl/eUIZydvWgLQXl+
9ulqJzCBGCmYLiYopzvOXCoao0/ggyhQfnDIFsEZqycxFSAnTQbanTUfnV8xfkoF
JH5vtFSCX+qF3U8FphKH2MORNPpq0rgNy6yu+8Pkp1pb0grG21YtavV+M0++Odnj
x7XhHyyfJ82Tg6s1+IucRE9HTfbUDEcgEN9YlGFXMhgOdo+7AnB/KR+x9NL+
-----END CERTIFICATE-----
