Certificate:
    Data:
        Version: 3 (0x2)
        Serial Number: 268435667 (0x100000d3)
    Signature Algorithm: sha256WithRSAEncryption
        Issuer: C=DE, ST=Hessen, O=privacyidea, CN=CA001
        Validity
            Not Before: Mar  6 15:42:36 2017 GMT
            Not After : Mar  6 15:42:36 2018 GMT
        Subject: CN=Steve Test/emailAddress=steve@openssl.org
        Subject Public Key Info:
            Public Key Algorithm: rsaEncryption
                Public-Key: (2048 bit)
                Modulus:
                    00:d2:81:89:20:51:48:0f:73:f4:11:32:24:d5:1f:
                    1c:fd:5c:f5:b6:e6:c5:f0:52:81:dc:d2:af:66:4a:
                    7c:93:31:61:5c:af:d1:6d:06:70:03:60:7c:72:0c:
                    88:dd:49:cd:9e:02:6c:d2:5a:d7:53:0f:f3:da:be:
                    69:64:b5:0f:0c:00:e3:b3:50:47:a3:b3:9b:ba:13:
                    50:d6:58:5a:4b:ab:39:e0:11:ca:0a:27:67:03:78:
                    22:66:6d:92:1e:1b:5c:49:ae:e6:6b:d1:8e:3b:9d:
                    06:d3:c6:ac:4d:53:43:10:ab:e8:96:c1:87:82:97:
                    99:8f:20:d3:99:12:37:31:84:e1:8a:ff:29:03:5f:
                    22:90:3e:7f:9b:e0:20:c1:ad:dc:ae:4c:39:1a:31:
                    96:17:02:8c:b2:d9:b4:0d:20:12:9b:7d:86:54:fd:
                    33:fd:c1:2a:62:46:f8:60:96:cf:6e:01:6f:22:df:
                    13:47:e7:97:ec:05:72:23:a3:62:f8:fa:ef:ac:9c:
                    72:f0:37:cb:2f:37:cf:90:a8:27:51:86:c6:d7:78:
                    08:8f:7e:25:a2:15:70:a2:fb:1c:b6:15:5e:a0:97:
                    8b:81:4c:09:28:8a:27:3b:94:bc:71:db:5b:71:37:
                    9a:2b:16:e0:6f:b5:c9:f5:4b:4f:20:ba:65:cf:af:
                    ad:ad
                Exponent: 65537 (0x10001)
        X509v3 extensions:
            X509v3 Key Usage: 
                Digital Signature, Key Encipherment
            X509v3 Basic Constraints: 
                CA:FALSE
            Netscape Cert Type: 
                SSL Server
            Netscape Comment: 
                OpenSSL Generated Server Certificate
            X509v3 Subject Key Identifier: 
                E5:25:6D:3E:AF:0D:DD:3F:4C:F2:45:19:39:D5:14:DB:7E:9C:C0:AD
            X509v3 Authority Key Identifier: 
                keyid:F4:A7:C0:CC:91:46:AF:64:F3:91:F2:27:F8:C8:B2:6F:8A:87:32:73
                DirName:/C=DE/ST=Hessen/O=privacyidea/CN=CA001
                serial:FB:C8:EB:AC:83:CD:12:07

            X509v3 Extended Key Usage: 
                TLS Web Server Authentication
    Signature Algorithm: sha256WithRSAEncryption
         9d:bc:73:43:77:1b:d4:6f:76:c0:56:b0:7d:16:4e:cc:67:b9:
         9d:3a:86:39:1b:c3:60:9b:c6:e1:68:c6:e2:68:fd:94:a3:3c:
         d9:ff:d0:5a:cb:ed:92:7a:83:1f:06:13:3e:05:94:cb:4c:e0:
         23:98:d4:02:31:a8:f2:a9:04:d5:4f:7f:9a:af:ec:87:5a:35:
         22:d2:90:51:83:7d:0c:6d:61:a5:6a:63:f1:0a:e1:e4:22:4d:
         b4:a6:f3:e7:b4:69:a9:c0:cb:f2:c1:9e:15:2f:58:b9:75:10:
         23:c9:e5:63:3f:af:69:8b:e9:98:16:72:76:4c:9c:12:19:ba:
         1a:8d:9f:47:f3:9e:14:a0:da:3e:e1:2f:05:a8:00:81:fc:7d:
         41:87:76:f2:ab:eb:ef:09:74:6a:e7:0c:18:99:7d:c3:0b:99:
         a6:28:fe:7b:3a:02:6f:e8:b2:f4:f8:47:1b:7f:99:c9:e5:c8:
         82:89:5b:02:05:e6:65:6a:72:f9:d8:7a:74:f1:b9:52:ad:5c:
         f6:aa:82:23:3a:f6:34:c9:e7:64:90:0d:13:3a:a3:bd:26:a5:
         5e:ad:a1:39:68:49:b2:f0:b0:a6:e5:96:e3:ce:97:c8:3d:03:
         44:33:3d:a5:72:a3:8a:de:9c:9d:a4:ab:9f:f3:47:4c:f0:9e:
         ff:2a:8b:ea
-----BEGIN CERTIFICATE-----
MIIECTCCAvGgAwIBAgIEEAAA0zANBgkqhkiG9w0BAQsFADBEMQswCQYDVQQGEwJE
RTEPMA0GA1UECAwGSGVzc2VuMRQwEgYDVQQKDAtwcml2YWN5aWRlYTEOMAwGA1UE
AwwFQ0EwMDEwHhcNMTcwMzA2MTU0MjM2WhcNMTgwMzA2MTU0MjM2WjA3MRMwEQYD
VQQDDApTdGV2ZSBUZXN0MSAwHgYJKoZIhvcNAQkBFhFzdGV2ZUBvcGVuc3NsLm9y
ZzCCASIwDQYJKoZIhvcNAQEBBQADggEPADCCAQoCggEBANKBiSBRSA9z9BEyJNUf
HP1c9bbmxfBSgdzSr2ZKfJMxYVyv0W0GcANgfHIMiN1JzZ4CbNJa11MP89q+aWS1
DwwA47NQR6Ozm7oTUNZYWkurOeARygonZwN4ImZtkh4bXEmu5mvRjjudBtPGrE1T
QxCr6JbBh4KXmY8g05kSNzGE4Yr/KQNfIpA+f5vgIMGt3K5MORoxlhcCjLLZtA0g
Ept9hlT9M/3BKmJG+GCWz24BbyLfE0fnl+wFciOjYvj676yccvA3yy83z5CoJ1GG
xtd4CI9+JaIVcKL7HLYVXqCXi4FMCSiKJzuUvHHbW3E3misW4G+1yfVLTyC6Zc+v
ra0CAwEAAaOCAQ4wggEKMAsGA1UdDwQEAwIFoDAJBgNVHRMEAjAAMBEGCWCGSAGG
+EIBAQQEAwIGQDAzBglghkgBhvhCAQ0EJhYkT3BlblNTTCBHZW5lcmF0ZWQgU2Vy
dmVyIENlcnRpZmljYXRlMB0GA1UdDgQWBBTlJW0+rw3dP0zyRRk51RTbfpzArTB0
BgNVHSMEbTBrgBT0p8DMkUavZPOR8if4yLJviocyc6FIpEYwRDELMAkGA1UEBhMC
REUxDzANBgNVBAgMBkhlc3NlbjEUMBIGA1UECgwLcHJpdmFjeWlkZWExDjAMBgNV
BAMMBUNBMDAxggkA+8jrrIPNEgcwEwYDVR0lBAwwCgYIKwYBBQUHAwEwDQYJKoZI
hvcNAQELBQADggEBAJ28c0N3G9RvdsBWsH0WTsxnuZ06hjkbw2CbxuFoxuJo/ZSj
PNn/0FrL7ZJ6gx8GEz4FlMtM4COY1AIxqPKpBNVPf5qv7IdaNSLSkFGDfQxtYaVq
Y/EK4eQiTbSm8+e0aanAy/LBnhUvWLl1ECPJ5WM/r2mL6ZgWcnZMnBIZuhqNn0fz
nhSg2j7hLwWoAIH8fUGHdvKr6+8JdGrnDBiZfcMLmaYo/ns6Am/osvT4Rxt/mcnl
yIKJWwIF5mVqcvnYenTxuVKtXPaqgiM69jTJ52SQDRM6o70mpV6toTloSbLwsKbl
luPOl8g9A0QzPaVyo4renJ2kq5/zR0zwnv8qi+o=
-----END CERTIFICATE-----
