Certificate:
    Data:
        Version: 3 (0x2)
        Serial Number: 268435669 (0x100000d5)
    Signature Algorithm: sha256WithRSAEncryption
        Issuer: C=DE, ST=Hessen, O=privacyidea, CN=CA001
        Validity
            Not Before: Mar  6 15:46:04 2017 GMT
            Not After : Mar  6 15:46:04 2018 GMT
        Subject: C=DE, ST=Hessen, O=privacyidea, CN=requester.localdomain
        Subject Public Key Info:
            Public Key Algorithm: rsaEncryption
                Public-Key: (2048 bit)
                Modulus:
                    00:cd:be:14:4f:fa:ce:01:3f:42:22:1b:1d:9c:af:
                    dd:92:d2:7f:db:6c:b7:3e:39:43:43:6b:13:03:f1:
                    05:f4:07:74:bc:76:69:28:0b:af:19:8e:d7:fc:e3:
                    cd:c6:58:f2:ca:7f:08:6d:53:fc:07:02:44:24:c6:
                    b4:34:4c:8c:04:fe:33:0e:40:e2:20:ba:02:73:5a:
                    f7:f5:4f:63:6e:cc:c6:b6:df:54:1d:37:39:7d:51:
                    36:26:5f:bd:dc:3f:a8:8b:6b:a2:ae:b6:9d:d6:21:
                    e7:df:41:b8:7a:28:2a:68:48:ca:a8:2d:ed:e1:e9:
                    46:5e:5a:72:6d:b4:84:38:87:91:fd:94:11:0b:28:
                    84:c6:c2:2f:2a:fb:01:f9:36:7a:09:75:d1:33:88:
                    3c:73:41:5b:c8:bf:94:89:70:a1:f0:c0:b9:2e:50:
                    53:1e:b1:17:64:69:f4:2d:81:e0:a9:0d:0e:32:e9:
                    ba:55:8a:85:f1:1b:6f:49:79:b4:7f:88:c3:0d:3e:
                    54:88:9b:3d:1f:38:8c:04:f3:ee:6a:63:2b:f5:c6:
                    db:b4:83:aa:c4:78:41:3a:7d:4b:e1:c8:3e:71:ca:
                    1b:61:59:ea:c6:c4:ca:32:5e:c9:e9:bf:12:29:e6:
                    c6:c3:63:fe:a0:55:da:7a:f1:60:98:4d:26:ed:fa:
                    70:2d
                Exponent: 65537 (0x10001)
        X509v3 extensions:
            X509v3 Key Usage: 
                Digital Signature, Key Encipherment
            X509v3 Basic Constraints: 
                CA:FALSE
            Netscape Cert Type: 
                SSL Server
            Netscape Comment: 
                OpenSSL Generated Server Certificate
            X509v3 Subject Key Identifier: 
                53:3F:ED:5D:09:07:B3:65:7B:AB:45:C9:24:5B:09:77:80:0A:96:ED
            X509v3 Authority Key Identifier: 
                keyid:F4:A7:C0:CC:91:46:AF:64:F3:91:F2:27:F8:C8:B2:6F:8A:87:32:73
                DirName:/C=DE/ST=Hessen/O=privacyidea/CN=CA001
                serial:FB:C8:EB:AC:83:CD:12:07

            X509v3 Extended Key Usage: 
                TLS Web Server Authentication
    Signature Algorithm: sha256WithRSAEncryption
         31:6c:c6:2d:45:43:aa:bb:0e:d2:27:cd:c1:c7:ae:63:cf:be:
         6d:a3:04:3d:42:b9:e4:6f:29:4f:ea:f7:17:24:e4:f8:30:50:
         a3:b7:fa:c1:d3:39:7a:84:d3:c9:8f:2e:13:2a:e9:e7:ea:57:
         2b:8a:77:e1:60:70:8d:de:08:5e:d3:9d:25:69:c0:91:b1:d8:
         5e:26:32:96:03:a1:b4:3c:55:0c:b8:46:c4:8c:60:40:f9:de:
         58:da:d1:b4:e0:20:95:89:03:b4:d2:2e:44:72:43:9a:4b:83:
         e3:2b:ae:a4:09:a2:86:22:14:4c:b2:7e:8b:d7:be:76:ea:ec:
         ae:9f:a6:e5:24:91:71:de:67:32:fe:d1:18:56:06:21:38:ee:
         b2:96:f2:42:54:59:21:5f:72:b3:62:9e:13:54:9a:44:d6:c6:
         23:17:e1:c6:64:38:1a:08:e5:fe:87:47:8e:1f:09:01:8a:31:
         1d:70:0e:f4:a4:30:7c:0e:95:b6:fc:17:31:0a:0d:e2:ff:31:
         6c:d9:f5:ba:bf:aa:73:15:ca:04:97:b0:b1:9a:2c:17:84:3e:
         98:af:28:61:2d:53:5f:82:f3:2e:a6:e6:ad:a1:f8:fd:fd:93:
         94:3e:97:be:bd:4b:04:21:55:e6:18:73:27:93:1d:58:3d:08:
         9a:c2:00:29
-----BEGIN CERTIFICATE-----
MIIEJjCCAw6gAwIBAgIEEAAA1TANBgkqhkiG9w0BAQsFADBEMQswCQYDVQQGEwJE
RTEPMA0GA1UECAwGSGVzc2VuMRQwEgYDVQQKDAtwcml2YWN5aWRlYTEOMAwGA1UE
AwwFQ0EwMDEwHhcNMTcwMzA2MTU0NjA0WhcNMTgwMzA2MTU0NjA0WjBUMQswCQYD
VQQGEwJERTEPMA0GA1UECAwGSGVzc2VuMRQwEgYDVQQKDAtwcml2YWN5aWRlYTEe
MBwGA1UEAwwVcmVxdWVzdGVyLmxvY2FsZG9tYWluMIIBIjANBgkqhkiG9w0BAQEF
AAOCAQ8AMIIBCgKCAQEAzb4UT/rOAT9CIhsdnK/dktJ/22y3PjlDQ2sTA/EF9Ad0
vHZpKAuvGY7X/OPNxljyyn8IbVP8BwJEJMa0NEyMBP4zDkDiILoCc1r39U9jbszG
tt9UHTc5fVE2Jl+93D+oi2uirrad1iHn30G4eigqaEjKqC3t4elGXlpybbSEOIeR
/ZQRCyiExsIvKvsB+TZ6CXXRM4g8c0FbyL+UiXCh8MC5LlBTHrEXZGn0LYHgqQ0O
Mum6VYqF8RtvSXm0f4jDDT5UiJs9HziMBPPuamMr9cbbtIOqxHhBOn1L4cg+ccob
YVnqxsTKMl7J6b8SKebGw2P+oFXaevFgmE0m7fpwLQIDAQABo4IBDjCCAQowCwYD
VR0PBAQDAgWgMAkGA1UdEwQCMAAwEQYJYIZIAYb4QgEBBAQDAgZAMDMGCWCGSAGG
+EIBDQQmFiRPcGVuU1NMIEdlbmVyYXRlZCBTZXJ2ZXIgQ2VydGlmaWNhdGUwHQYD
VR0OBBYEFFM/7V0JB7Nle6tFySRbCXeACpbtMHQGA1UdIwRtMGuAFPSnwMyRRq9k
85HyJ/jIsm+KhzJzoUikRjBEMQswCQYDVQQGEwJERTEPMA0GA1UECAwGSGVzc2Vu
MRQwEgYDVQQKDAtwcml2YWN5aWRlYTEOMAwGA1UEAwwFQ0EwMDGCCQD7yOusg80S
BzATBgNVHSUEDDAKBggrBgEFBQcDATANBgkqhkiG9w0BAQsFAAOCAQEAMWzGLUVD
qrsO0ifNwceuY8++baMEPUK55G8pT+r3FyTk+DBQo7f6wdM5eoTTyY8uEyrp5+pX
K4p34WBwjd4IXtOdJWnAkbHYXiYylgOhtDxVDLhGxIxgQPneWNrRtOAglYkDtNIu
RHJDmkuD4yuupAmihiIUTLJ+i9e+dursrp+m5SSRcd5nMv7RGFYGITjuspbyQlRZ
IV9ys2KeE1SaRNbGIxfhxmQ4Ggjl/odHjh8JAYoxHXAO9KQwfA6VtvwXMQoN4v8x
bNn1ur+qcxXKBJewsZosF4Q+mK8oYS1TX4LzLqbmraH4/f2TlD6Xvr1LBCFV5hhz
J5MdWD0ImsIAKQ==
-----END CERTIFICATE-----
