Certificate:
    Data:
        Version: 3 (0x2)
        Serial Number: 268435672 (0x100000d8)
    Signature Algorithm: sha256WithRSAEncryption
        Issuer: C=DE, ST=Hessen, O=privacyidea, CN=CA001
        Validity
            Not Before: Mar  3 20:17:27 2017 GMT
            Not After : Mar  3 20:17:27 2018 GMT
        Subject: C=DE, ST=Hessen, O=privacyidea, CN=requester.localdomain
        Subject Public Key Info:
            Public Key Algorithm: rsaEncryption
                Public-Key: (2048 bit)
                Modulus:
                    00:cd:be:14:4f:fa:ce:01:3f:42:22:1b:1d:9c:af:
                    dd:92:d2:7f:db:6c:b7:3e:39:43:43:6b:13:03:f1:
                    05:f4:07:74:bc:76:69:28:0b:af:19:8e:d7:fc:e3:
                    cd:c6:58:f2:ca:7f:08:6d:53:fc:07:02:44:24:c6:
                    b4:34:4c:8c:04:fe:33:0e:40:e2:20:ba:02:73:5a:
                    f7:f5:4f:63:6e:cc:c6:b6:df:54:1d:37:39:7d:51:
                    36:26:5f:bd:dc:3f:a8:8b:6b:a2:ae:b6:9d:d6:21:
                    e7:df:41:b8:7a:28:2a:68:48:ca:a8:2d:ed:e1:e9:
                    46:5e:5a:72:6d:b4:84:38:87:91:fd:94:11:0b:28:
                    84:c6:c2:2f:2a:fb:01:f9:36:7a:09:75:d1:33:88:
                    3c:73:41:5b:c8:bf:94:89:70:a1:f0:c0:b9:2e:50:
                    53:1e:b1:17:64:69:f4:2d:81:e0:a9:0d:0e:32:e9:
                    ba:55:8a:85:f1:1b:6f:49:79:b4:7f:88:c3:0d:3e:
                    54:88:9b:3d:1f:38:8c:04:f3:ee:6a:63:2b:f5:c6:
                    db:b4:83:aa:c4:78:41:3a:7d:4b:e1:c8:3e:71:ca:
                    1b:61:59:ea:c6:c4:ca:32:5e:c9:e9:bf:12:29:e6:
                    c6:c3:63:fe:a0:55:da:7a:f1:60:98:4d:26:ed:fa:
                    70:2d
                Exponent: 65537 (0x10001)
        X509v3 extensions:
            X509v3 Key Usage: 
                Digital Signature, Key Encipherment
            X509v3 Basic Constraints: 
                CA:FALSE
            Netscape Cert Type: 
                SSL Server
            Netscape Comment: 
                OpenSSL Generated Server Certificate
            X509v3 Subject Key Identifier: 
                53:3F:ED:5D:09:07:B3:65:7B:AB:45:C9:24:5B:09:77:80:0A:96:ED
            X509v3 Authority Key Identifier: 
                keyid:F4:A7:C0:CC:91:46:AF:64:F3:91:F2:27:F8:C8:B2:6F:8A:87:32:73
                DirName:/C=DE/ST=Hessen/O=privacyidea/CN=CA001
                serial:FB:C8:EB:AC:83:CD:12:07

            X509v3 Extended Key Usage: 
                TLS Web Server Authentication
    Signature Algorithm: sha256WithRSAEncryption
         89:3c:8c:d9:d7:57:fa:4f:03:2d:19:6d:79:ec:99:fc:99:6f:
         a8:09:b1:88:1e:f3:2f:dd:ee:a2:52:30:83:f7:76:71:57:13:
         73:07:ff:02:e6:5b:ac:02:f7:ae:f5:0a:5d:04:b6:f5:3a:e8:
         de:20:fd:e9:1c:1a:f8:ba:ea:e5:96:1d:76:4b:1d:db:c3:85:
         c0:2f:75:49:5f:3b:b0:a7:f9:d9:e8:f0:7e:08:18:6d:5a:1b:
         c5:cf:4a:34:89:a0:e3:14:5b:1f:3b:9c:e4:5d:3c:c5:2d:4a:
         01:71:4c:39:32:22:37:69:e0:79:dc:c6:c5:b2:4c:08:be:ba:
         50:eb:93:5b:2a:fd:d1:94:36:20:ce:e0:8d:d5:25:51:2d:c0:
         88:1e:09:f1:af:e0:57:af:e4:28:a8:ab:bd:de:f2:f8:8a:0a:
         dc:83:75:5b:21:1c:c6:ae:c9:12:7b:88:5c:b8:be:19:6a:ae:
         86:2f:85:a8:6f:38:8f:0c:5b:07:fc:84:f3:f1:b8:b6:36:fb:
         98:a5:56:f6:ef:a4:2b:65:d8:d6:67:40:ca:af:a1:05:9a:46:
         91:75:9e:69:33:ba:92:be:48:7c:14:a9:9f:bd:6e:c5:b6:53:
         e3:21:a0:61:73:78:32:15:2c:23:41:a1:36:6e:af:be:0a:28:
         c0:15:25:15
-----BEGIN CERTIFICATE-----
MIIEJjCCAw6gAwIBAgIEEAAA2DANBgkqhkiG9w0BAQsFADBEMQswCQYDVQQGEwJE
RTEPMA0GA1UECAwGSGVzc2VuMRQwEgYDVQQKDAtwcml2YWN5aWRlYTEOMAwGA1UE
AwwFQ0EwMDEwHhcNMTcwMzAzMjAxNzI3WhcNMTgwMzAzMjAxNzI3WjBUMQswCQYD
VQQGEwJERTEPMA0GA1UECAwGSGVzc2VuMRQwEgYDVQQKDAtwcml2YWN5aWRlYTEe
MBwGA1UEAwwVcmVxdWVzdGVyLmxvY2FsZG9tYWluMIIBIjANBgkqhkiG9w0BAQEF
AAOCAQ8AMIIBCgKCAQEAzb4UT/rOAT9CIhsdnK/dktJ/22y3PjlDQ2sTA/EF9Ad0
vHZpKAuvGY7X/OPNxljyyn8IbVP8BwJEJMa0NEyMBP4zDkDiILoCc1r39U9jbszG
tt9UHTc5fVE2Jl+93D+oi2uirrad1iHn30G4eigqaEjKqC3t4elGXlpybbSEOIeR
/ZQRCyiExsIvKvsB+TZ6CXXRM4g8c0FbyL+UiXCh8MC5LlBTHrEXZGn0LYHgqQ0O
Mum6VYqF8RtvSXm0f4jDDT5UiJs9HziMBPPuamMr9cbbtIOqxHhBOn1L4cg+ccob
YVnqxsTKMl7J6b8SKebGw2P+oFXaevFgmE0m7fpwLQIDAQABo4IBDjCCAQowCwYD
VR0PBAQDAgWgMAkGA1UdEwQCMAAwEQYJYIZIAYb4QgEBBAQDAgZAMDMGCWCGSAGG
+EIBDQQmFiRPcGVuU1NMIEdlbmVyYXRlZCBTZXJ2ZXIgQ2VydGlmaWNhdGUwHQYD
VR0OBBYEFFM/7V0JB7Nle6tFySRbCXeACpbtMHQGA1UdIwRtMGuAFPSnwMyRRq9k
85HyJ/jIsm+KhzJzoUikRjBEMQswCQYDVQQGEwJERTEPMA0GA1UECAwGSGVzc2Vu
MRQwEgYDVQQKDAtwcml2YWN5aWRlYTEOMAwGA1UEAwwFQ0EwMDGCCQD7yOusg80S
BzATBgNVHSUEDDAKBggrBgEFBQcDATANBgkqhkiG9w0BAQsFAAOCAQEAiTyM2ddX
+k8DLRlteeyZ/JlvqAmxiB7zL93uolIwg/d2cVcTcwf/AuZbrAL3rvUKXQS29Tro
3iD96Rwa+Lrq5ZYddksd28OFwC91SV87sKf52ejwfggYbVobxc9KNImg4xRbHzuc
5F08xS1KAXFMOTIiN2ngedzGxbJMCL66UOuTWyr90ZQ2IM7gjdUlUS3AiB4J8a/g
V6/kKKirvd7y+IoK3IN1WyEcxq7JEnuIXLi+GWquhi+FqG84jwxbB/yE8/G4tjb7
mKVW9u+kK2XY1mdAyq+hBZpGkXWeaTO6kr5IfBSpn71uxbZT4yGgYXN4MhUsI0Gh
Nm6vvgoowBUlFQ==
-----END CERTIFICATE-----
