Certificate:
    Data:
        Version: 3 (0x2)
        Serial Number: 268435668 (0x100000d4)
    Signature Algorithm: sha256WithRSAEncryption
        Issuer: C=DE, ST=Hessen, O=privacyidea, CN=CA001
        Validity
            Not Before: Mar  6 15:42:36 2017 GMT
            Not After : Mar 26 15:42:36 2019 GMT
        Subject: CN=Steve Test/emailAddress=steve@openssl.org
        Subject Public Key Info:
            Public Key Algorithm: rsaEncryption
                Public-Key: (2048 bit)
                Modulus:
                    00:d2:81:89:20:51:48:0f:73:f4:11:32:24:d5:1f:
                    1c:fd:5c:f5:b6:e6:c5:f0:52:81:dc:d2:af:66:4a:
                    7c:93:31:61:5c:af:d1:6d:06:70:03:60:7c:72:0c:
                    88:dd:49:cd:9e:02:6c:d2:5a:d7:53:0f:f3:da:be:
                    69:64:b5:0f:0c:00:e3:b3:50:47:a3:b3:9b:ba:13:
                    50:d6:58:5a:4b:ab:39:e0:11:ca:0a:27:67:03:78:
                    22:66:6d:92:1e:1b:5c:49:ae:e6:6b:d1:8e:3b:9d:
                    06:d3:c6:ac:4d:53:43:10:ab:e8:96:c1:87:82:97:
                    99:8f:20:d3:99:12:37:31:84:e1:8a:ff:29:03:5f:
                    22:90:3e:7f:9b:e0:20:c1:ad:dc:ae:4c:39:1a:31:
                    96:17:02:8c:b2:d9:b4:0d:20:12:9b:7d:86:54:fd:
                    33:fd:c1:2a:62:46:f8:60:96:cf:6e:01:6f:22:df:
                    13:47:e7:97:ec:05:72:23:a3:62:f8:fa:ef:ac:9c:
                    72:f0:37:cb:2f:37:cf:90:a8:27:51:86:c6:d7:78:
                    08:8f:7e:25:a2:15:70:a2:fb:1c:b6:15:5e:a0:97:
                    8b:81:4c:09:28:8a:27:3b:94:bc:71:db:5b:71:37:
                    9a:2b:16:e0:6f:b5:c9:f5:4b:4f:20:ba:65:cf:af:
                    ad:ad
                Exponent: 65537 (0x10001)
        X509v3 extensions:
            X509v3 Key Usage: 
                Digital Signature, Key Encipherment
            X509v3 Basic Constraints: 
                CA:FALSE
            Netscape Cert Type: 
                SSL Server
            Netscape Comment: 
                OpenSSL Generated Server Certificate
            X509v3 Subject Key Identifier: 
                E5:25:6D:3E:AF:0D:DD:3F:4C:F2:45:19:39:D5:14:DB:7E:9C:C0:AD
            X509v3 Authority Key Identifier: 
                keyid:F4:A7:C0:CC:91:46:AF:64:F3:91:F2:27:F8:C8:B2:6F:8A:87:32:73
                DirName:/C=DE/ST=Hessen/O=privacyidea/CN=CA001
                serial:FB:C8:EB:AC:83:CD:12:07

            X509v3 Extended Key Usage: 
                TLS Web Server Authentication
    Signature Algorithm: sha256WithRSAEncryption
         02:50:a2:77:18:a3:6c:8f:98:12:5f:89:16:44:54:be:60:c3:
         a9:98:02:3e:dd:2d:67:d4:52:a0:ca:b9:5e:6a:4d:1d:bb:f2:
         e6:a8:12:80:6f:27:d8:c0:98:d7:36:57:c4:5d:41:89:99:b4:
         77:49:47:68:dc:3f:45:47:61:07:43:15:a5:8c:2e:56:88:99:
         7f:a6:a9:90:66:7c:d6:37:fe:bd:f1:37:37:a8:2d:95:85:23:
         e0:76:1f:b6:0c:dc:35:05:e7:a3:cd:82:ad:fa:fa:7d:4e:9e:
         19:9a:70:5c:31:ca:a8:56:8a:0c:c1:23:02:f5:4c:69:d6:21:
         f0:de:22:41:87:d9:fb:9e:57:47:3f:7f:49:42:24:51:4d:e9:
         4f:1f:bf:c7:85:bb:16:7e:ec:d5:1d:58:b0:24:00:87:98:60:
         6e:b1:cc:99:fe:3a:4b:a9:90:96:08:f2:25:61:3e:98:68:b4:
         63:65:f4:88:89:5b:c0:38:c2:01:e8:a9:1d:f8:02:ac:98:4f:
         1e:2c:da:8e:5b:63:d3:e7:97:dd:a4:fb:6f:08:bc:6d:e3:a9:
         5f:e9:35:8f:20:16:71:60:2e:d8:9b:74:25:18:79:2a:0b:0f:
         72:61:d6:0f:4e:48:3e:64:dd:fc:55:99:8f:41:c8:33:a1:b6:
         21:8c:b5:c4
-----BEGIN CERTIFICATE-----
MIIECTCCAvGgAwIBAgIEEAAA1DANBgkqhkiG9w0BAQsFADBEMQswCQYDVQQGEwJE
RTEPMA0GA1UECAwGSGVzc2VuMRQwEgYDVQQKDAtwcml2YWN5aWRlYTEOMAwGA1UE
AwwFQ0EwMDEwHhcNMTcwMzA2MTU0MjM2WhcNMTkwMzI2MTU0MjM2WjA3MRMwEQYD
VQQDDApTdGV2ZSBUZXN0MSAwHgYJKoZIhvcNAQkBFhFzdGV2ZUBvcGVuc3NsLm9y
ZzCCASIwDQYJKoZIhvcNAQEBBQADggEPADCCAQoCggEBANKBiSBRSA9z9BEyJNUf
HP1c9bbmxfBSgdzSr2ZKfJMxYVyv0W0GcANgfHIMiN1JzZ4CbNJa11MP89q+aWS1
DwwA47NQR6Ozm7oTUNZYWkurOeARygonZwN4ImZtkh4bXEmu5mvRjjudBtPGrE1T
QxCr6JbBh4KXmY8g05kSNzGE4Yr/KQNfIpA+f5vgIMGt3K5MORoxlhcCjLLZtA0g
Ept9hlT9M/3BKmJG+GCWz24BbyLfE0fnl+wFciOjYvj676yccvA3yy83z5CoJ1GG
xtd4CI9+JaIVcKL7HLYVXqCXi4FMCSiKJzuUvHHbW3E3misW4G+1yfVLTyC6Zc+v
ra0CAwEAAaOCAQ4wggEKMAsGA1UdDwQEAwIFoDAJBgNVHRMEAjAAMBEGCWCGSAGG
+EIBAQQEAwIGQDAzBglghkgBhvhCAQ0EJhYkT3BlblNTTCBHZW5lcmF0ZWQgU2Vy
dmVyIENlcnRpZmljYXRlMB0GA1UdDgQWBBTlJW0+rw3dP0zyRRk51RTbfpzArTB0
BgNVHSMEbTBrgBT0p8DMkUavZPOR8if4yLJviocyc6FIpEYwRDELMAkGA1UEBhMC
REUxDzANBgNVBAgMBkhlc3NlbjEUMBIGA1UECgwLcHJpdmFjeWlkZWExDjAMBgNV
BAMMBUNBMDAxggkA+8jrrIPNEgcwEwYDVR0lBAwwCgYIKwYBBQUHAwEwDQYJKoZI
hvcNAQELBQADggEBAAJQoncYo2yPmBJfiRZEVL5gw6mYAj7dLWfUUqDKuV5qTR27
8uaoEoBvJ9jAmNc2V8RdQYmZtHdJR2jcP0VHYQdDFaWMLlaImX+mqZBmfNY3/r3x
NzeoLZWFI+B2H7YM3DUF56PNgq36+n1OnhmacFwxyqhWigzBIwL1TGnWIfDeIkGH
2fueV0c/f0lCJFFN6U8fv8eFuxZ+7NUdWLAkAIeYYG6xzJn+OkupkJYI8iVhPpho
tGNl9IiJW8A4wgHoqR34AqyYTx4s2o5bY9Pnl92k+28IvG3jqV/pNY8gFnFgLtib
dCUYeSoLD3Jh1g9OSD5k3fxVmY9ByDOhtiGMtcQ=
-----END CERTIFICATE-----
