Certificate:
    Data:
        Version: 3 (0x2)
        Serial Number: 268435676 (0x100000dc)
    Signature Algorithm: sha256WithRSAEncryption
        Issuer: C=DE, ST=Hessen, O=privacyidea, CN=CA001
        Validity
            Not Before: Mar  3 20:19:04 2017 GMT
            Not After : Mar 23 20:19:04 2019 GMT
        Subject: CN=Steve Test/emailAddress=steve@openssl.org
        Subject Public Key Info:
            Public Key Algorithm: rsaEncryption
                Public-Key: (2048 bit)
                Modulus:
                    00:d2:81:89:20:51:48:0f:73:f4:11:32:24:d5:1f:
                    1c:fd:5c:f5:b6:e6:c5:f0:52:81:dc:d2:af:66:4a:
                    7c:93:31:61:5c:af:d1:6d:06:70:03:60:7c:72:0c:
                    88:dd:49:cd:9e:02:6c:d2:5a:d7:53:0f:f3:da:be:
                    69:64:b5:0f:0c:00:e3:b3:50:47:a3:b3:9b:ba:13:
                    50:d6:58:5a:4b:ab:39:e0:11:ca:0a:27:67:03:78:
                    22:66:6d:92:1e:1b:5c:49:ae:e6:6b:d1:8e:3b:9d:
                    06:d3:c6:ac:4d:53:43:10:ab:e8:96:c1:87:82:97:
                    99:8f:20:d3:99:12:37:31:84:e1:8a:ff:29:03:5f:
                    22:90:3e:7f:9b:e0:20:c1:ad:dc:ae:4c:39:1a:31:
                    96:17:02:8c:b2:d9:b4:0d:20:12:9b:7d:86:54:fd:
                    33:fd:c1:2a:62:46:f8:60:96:cf:6e:01:6f:22:df:
                    13:47:e7:97:ec:05:72:23:a3:62:f8:fa:ef:ac:9c:
                    72:f0:37:cb:2f:37:cf:90:a8:27:51:86:c6:d7:78:
                    08:8f:7e:25:a2:15:70:a2:fb:1c:b6:15:5e:a0:97:
                    8b:81:4c:09:28:8a:27:3b:94:bc:71:db:5b:71:37:
                    9a:2b:16:e0:6f:b5:c9:f5:4b:4f:20:ba:65:cf:af:
                    ad:ad
                Exponent: 65537 (0x10001)
        X509v3 extensions:
            X509v3 Key Usage: 
                Digital Signature, Key Encipherment
            X509v3 Basic Constraints: 
                CA:FALSE
            Netscape Cert Type: 
                SSL Server
            Netscape Comment: 
                OpenSSL Generated Server Certificate
            X509v3 Subject Key Identifier: 
                E5:25:6D:3E:AF:0D:DD:3F:4C:F2:45:19:39:D5:14:DB:7E:9C:C0:AD
            X509v3 Authority Key Identifier: 
                keyid:F4:A7:C0:CC:91:46:AF:64:F3:91:F2:27:F8:C8:B2:6F:8A:87:32:73
                DirName:/C=DE/ST=Hessen/O=privacyidea/CN=CA001
                serial:FB:C8:EB:AC:83:CD:12:07

            X509v3 Extended Key Usage: 
                TLS Web Server Authentication
    Signature Algorithm: sha256WithRSAEncryption
         a1:91:64:39:4e:52:b5:65:70:c3:0e:af:26:6f:cc:3f:f9:b1:
         80:5f:82:2a:45:7b:bb:e5:0a:9c:88:0b:49:00:2e:5f:c4:62:
         61:d5:78:73:a3:c7:89:89:57:5b:65:e5:d6:75:f0:9d:d0:3b:
         ce:ed:3a:d9:0f:15:4a:c8:a8:a0:4f:53:ea:0a:71:a8:bd:d8:
         58:af:61:4f:4a:99:59:46:88:c5:27:04:1e:d3:2b:ac:79:92:
         7f:eb:2d:b3:18:a9:77:ce:85:1c:04:3a:af:93:a6:4d:81:1f:
         86:56:73:be:eb:63:93:7c:1a:a5:fd:4f:0f:6e:90:b9:87:a6:
         c7:9e:06:c2:c2:64:03:b6:ad:9d:05:b9:3c:3c:7e:c4:c8:fc:
         21:21:de:05:f9:e1:85:5b:54:0b:77:5f:16:6a:3d:b6:47:56:
         53:70:6e:29:b4:95:ee:3c:dd:93:38:25:da:c7:23:69:aa:32:
         71:fa:9e:fe:14:0c:29:9c:6d:09:c5:5d:26:b1:8f:9e:58:43:
         b7:22:e4:0a:09:98:f3:2a:09:65:da:e2:ff:db:cf:eb:fb:f6:
         7f:7c:59:96:96:76:73:97:90:71:cb:c8:db:ae:81:1a:eb:a1:
         17:02:04:88:af:75:5c:5c:54:a4:7f:a5:8e:94:cc:25:27:65:
         c5:cd:9f:84
-----BEGIN CERTIFICATE-----
MIIECTCCAvGgAwIBAgIEEAAA3DANBgkqhkiG9w0BAQsFADBEMQswCQYDVQQGEwJE
RTEPMA0GA1UECAwGSGVzc2VuMRQwEgYDVQQKDAtwcml2YWN5aWRlYTEOMAwGA1UE
AwwFQ0EwMDEwHhcNMTcwMzAzMjAxOTA0WhcNMTkwMzIzMjAxOTA0WjA3MRMwEQYD
VQQDDApTdGV2ZSBUZXN0MSAwHgYJKoZIhvcNAQkBFhFzdGV2ZUBvcGVuc3NsLm9y
ZzCCASIwDQYJKoZIhvcNAQEBBQADggEPADCCAQoCggEBANKBiSBRSA9z9BEyJNUf
HP1c9bbmxfBSgdzSr2ZKfJMxYVyv0W0GcANgfHIMiN1JzZ4CbNJa11MP89q+aWS1
DwwA47NQR6Ozm7oTUNZYWkurOeARygonZwN4ImZtkh4bXEmu5mvRjjudBtPGrE1T
QxCr6JbBh4KXmY8g05kSNzGE4Yr/KQNfIpA+f5vgIMGt3K5MORoxlhcCjLLZtA0g
Ept9hlT9M/3BKmJG+GCWz24BbyLfE0fnl+wFciOjYvj676yccvA3yy83z5CoJ1GG
xtd4CI9+JaIVcKL7HLYVXqCXi4FMCSiKJzuUvHHbW3E3misW4G+1yfVLTyC6Zc+v
ra0CAwEAAaOCAQ4wggEKMAsGA1UdDwQEAwIFoDAJBgNVHRMEAjAAMBEGCWCGSAGG
+EIBAQQEAwIGQDAzBglghkgBhvhCAQ0EJhYkT3BlblNTTCBHZW5lcmF0ZWQgU2Vy
dmVyIENlcnRpZmljYXRlMB0GA1UdDgQWBBTlJW0+rw3dP0zyRRk51RTbfpzArTB0
BgNVHSMEbTBrgBT0p8DMkUavZPOR8if4yLJviocyc6FIpEYwRDELMAkGA1UEBhMC
REUxDzANBgNVBAgMBkhlc3NlbjEUMBIGA1UECgwLcHJpdmFjeWlkZWExDjAMBgNV
BAMMBUNBMDAxggkA+8jrrIPNEgcwEwYDVR0lBAwwCgYIKwYBBQUHAwEwDQYJKoZI
hvcNAQELBQADggEBAKGRZDlOUrVlcMMOryZvzD/5sYBfgipFe7vlCpyIC0kALl/E
YmHVeHOjx4mJV1tl5dZ18J3QO87tOtkPFUrIqKBPU+oKcai92FivYU9KmVlGiMUn
BB7TK6x5kn/rLbMYqXfOhRwEOq+Tpk2BH4ZWc77rY5N8GqX9Tw9ukLmHpseeBsLC
ZAO2rZ0FuTw8fsTI/CEh3gX54YVbVAt3XxZqPbZHVlNwbim0le483ZM4JdrHI2mq
MnH6nv4UDCmcbQnFXSaxj55YQ7ci5AoJmPMqCWXa4v/bz+v79n98WZaWdnOXkHHL
yNuugRrroRcCBIivdVxcVKR/pY6UzCUnZcXNn4Q=
-----END CERTIFICATE-----
