Certificate:
    Data:
        Version: 3 (0x2)
        Serial Number: 268435671 (0x100000d7)
    Signature Algorithm: sha256WithRSAEncryption
        Issuer: C=DE, ST=Hessen, O=privacyidea, CN=CA001
        Validity
            Not Before: Mar  3 18:05:31 2017 GMT
            Not After : Mar  3 18:05:31 2018 GMT
        Subject: CN=selfservice,CN=user,O=realm1/emailAddress=meine
        Subject Public Key Info:
            Public Key Algorithm: rsaEncryption
                Public-Key: (2048 bit)
                Modulus:
                    00:cf:3c:d4:33:0e:12:c4:e6:da:cd:b6:56:a1:1c:
                    26:bb:26:1c:8a:4a:73:a8:58:8a:b6:1e:b3:8b:99:
                    d2:1d:07:c2:92:89:79:c0:69:d8:c8:df:28:61:98:
                    1e:b3:fe:ae:2b:bd:78:a9:f7:6e:47:dc:a3:a0:16:
                    8c:85:02:c1:4e:92:fd:72:6e:f0:c8:03:29:9b:b8:
                    00:6e:c0:83:95:c8:34:20:36:9c:b3:e5:e4:e6:76:
                    73:a3:1a:ad:40:96:e0:53:54:00:ec:76:79:9a:c6:
                    0d:7e:b6:bd:29:ec:83:f3:cb:89:a4:cb:6c:00:ba:
                    0c:c5:78:0f:ff:69:b8:94:f4:04:70:43:3f:d8:9e:
                    d7:a7:fb:5d:ce:75:8e:da:e7:c4:07:b1:9d:de:6f:
                    88:4b:b6:4d:9a:cf:f9:bc:fa:9f:cd:32:6d:f6:3a:
                    0b:0d:23:42:78:ec:97:42:bf:0e:4d:60:56:e1:d3:
                    02:f2:19:cb:84:57:90:e5:70:a1:a2:83:35:86:e2:
                    da:86:9f:f9:8a:c4:79:b3:52:28:da:cb:bb:34:ca:
                    d3:da:91:4a:cf:8d:76:a2:b2:6b:9b:f9:96:fd:09:
                    2a:da:11:23:4d:f0:cb:d6:b2:b1:0e:12:6c:9a:19:
                    65:98:87:ca:e4:ee:24:ce:44:ac:90:8f:9d:1b:c5:
                    2a:9d
                Exponent: 65537 (0x10001)
        X509v3 extensions:
            X509v3 Key Usage: 
                Digital Signature, Key Encipherment
            X509v3 Basic Constraints: 
                CA:FALSE
            Netscape Cert Type: 
                SSL Server
            Netscape Comment: 
                OpenSSL Generated Server Certificate
            X509v3 Subject Key Identifier: 
                4D:07:90:AD:FF:1D:0D:E7:1A:DD:D6:2E:FA:BA:34:CB:AA:1F:24:C6
            X509v3 Authority Key Identifier: 
                keyid:F4:A7:C0:CC:91:46:AF:64:F3:91:F2:27:F8:C8:B2:6F:8A:87:32:73
                DirName:/C=DE/ST=Hessen/O=privacyidea/CN=CA001
                serial:FB:C8:EB:AC:83:CD:12:07

            X509v3 Extended Key Usage: 
                TLS Web Server Authentication
    Signature Algorithm: sha256WithRSAEncryption
         24:37:a4:c4:88:76:14:91:36:5f:c5:64:28:8b:94:65:a2:9a:
         cc:b1:0f:26:3a:29:13:ef:4e:9e:2a:e4:f0:c9:f2:05:c5:e4:
         cf:8d:5f:0f:78:88:ed:f8:ea:2d:89:46:69:66:48:ac:fc:20:
         de:3f:6b:c3:98:6f:b0:b0:38:25:d7:b1:f5:14:dc:ac:18:80:
         83:4e:d0:70:0f:38:11:2d:fd:46:4e:73:2a:0c:9e:34:65:20:
         04:18:3b:96:a8:9f:d5:ea:ed:16:e9:80:af:ae:d7:4c:83:18:
         95:47:38:19:38:ce:f4:48:ae:8f:c7:ef:66:45:ff:d0:38:34:
         1f:f9:a9:28:12:d2:56:60:86:58:ac:0f:5b:1b:6e:64:38:cd:
         45:70:35:fb:3e:ed:3e:4a:82:b5:5a:a1:17:68:b8:a1:e7:d8:
         59:a4:1d:ca:2e:26:e3:74:c9:cb:32:94:d0:a1:f8:e8:3c:45:
         34:c2:f8:6d:16:4b:c1:4b:3f:06:56:30:71:e0:9d:12:f6:e7:
         9d:72:6c:8f:65:e7:c5:c4:4a:57:c8:9e:98:ec:2e:c4:ce:99:
         86:3f:63:fa:25:1e:c9:ec:2c:df:64:f7:08:d4:fc:3c:ac:24:
         0a:94:b4:1e:5d:05:9e:8f:0e:36:44:25:01:79:50:40:3a:14:
         12:80:8b:85
-----BEGIN CERTIFICATE-----
MIIEDzCCAvegAwIBAgIEEAAA1zANBgkqhkiG9w0BAQsFADBEMQswCQYDVQQGEwJE
RTEPMA0GA1UECAwGSGVzc2VuMRQwEgYDVQQKDAtwcml2YWN5aWRlYTEOMAwGA1UE
AwwFQ0EwMDEwHhcNMTcwMzAzMTgwNTMxWhcNMTgwMzAzMTgwNTMxWjA9MSUwIwYD
VQQDDBxzZWxmc2VydmljZSxDTj11c2VyLE89cmVhbG0xMRQwEgYJKoZIhvcNAQkB
FgVtZWluZTCCASIwDQYJKoZIhvcNAQEBBQADggEPADCCAQoCggEBAM881DMOEsTm
2s22VqEcJrsmHIpKc6hYirYes4uZ0h0HwpKJecBp2MjfKGGYHrP+riu9eKn3bkfc
o6AWjIUCwU6S/XJu8MgDKZu4AG7Ag5XINCA2nLPl5OZ2c6MarUCW4FNUAOx2eZrG
DX62vSnsg/PLiaTLbAC6DMV4D/9puJT0BHBDP9ie16f7Xc51jtrnxAexnd5viEu2
TZrP+bz6n80ybfY6Cw0jQnjsl0K/Dk1gVuHTAvIZy4RXkOVwoaKDNYbi2oaf+YrE
ebNSKNrLuzTK09qRSs+NdqKya5v5lv0JKtoRI03wy9aysQ4SbJoZZZiHyuTuJM5E
rJCPnRvFKp0CAwEAAaOCAQ4wggEKMAsGA1UdDwQEAwIFoDAJBgNVHRMEAjAAMBEG
CWCGSAGG+EIBAQQEAwIGQDAzBglghkgBhvhCAQ0EJhYkT3BlblNTTCBHZW5lcmF0
ZWQgU2VydmVyIENlcnRpZmljYXRlMB0GA1UdDgQWBBRNB5Ct/x0N5xrd1i76ujTL
qh8kxjB0BgNVHSMEbTBrgBT0p8DMkUavZPOR8if4yLJviocyc6FIpEYwRDELMAkG
A1UEBhMCREUxDzANBgNVBAgMBkhlc3NlbjEUMBIGA1UECgwLcHJpdmFjeWlkZWEx
DjAMBgNVBAMMBUNBMDAxggkA+8jrrIPNEgcwEwYDVR0lBAwwCgYIKwYBBQUHAwEw
DQYJKoZIhvcNAQELBQADggEBACQ3pMSIdhSRNl/FZCiLlGWimsyxDyY6KRPvTp4q
5PDJ8gXF5M+NXw94iO346i2JRmlmSKz8IN4/a8OYb7CwOCXXsfUU3KwYgINO0HAP
OBEt/UZOcyoMnjRlIAQYO5aon9Xq7RbpgK+u10yDGJVHOBk4zvRIro/H72ZF/9A4
NB/5qSgS0lZghlisD1sbbmQ4zUVwNfs+7T5KgrVaoRdouKHn2FmkHcouJuN0ycsy
lNCh+Og8RTTC+G0WS8FLPwZWMHHgnRL2551ybI9l58XESlfInpjsLsTOmYY/Y/ol
HsnsLN9k9wjU/DysJAqUtB5dBZ6PDjZEJQF5UEA6FBKAi4U=
-----END CERTIFICATE-----
