Certificate:
    Data:
        Version: 3 (0x2)
        Serial Number: 268435665 (0x100000d1)
    Signature Algorithm: sha256WithRSAEncryption
        Issuer: C=DE, ST=Hessen, O=privacyidea, CN=CA001
        Validity
            Not Before: Mar  6 15:42:36 2017 GMT
            Not After : Mar  6 15:42:36 2018 GMT
        Subject: C=DE, ST=Hessen, O=privacyidea, CN=requester.localdomain
        Subject Public Key Info:
            Public Key Algorithm: rsaEncryption
                Public-Key: (2048 bit)
                Modulus:
                    00:cd:be:14:4f:fa:ce:01:3f:42:22:1b:1d:9c:af:
                    dd:92:d2:7f:db:6c:b7:3e:39:43:43:6b:13:03:f1:
                    05:f4:07:74:bc:76:69:28:0b:af:19:8e:d7:fc:e3:
                    cd:c6:58:f2:ca:7f:08:6d:53:fc:07:02:44:24:c6:
                    b4:34:4c:8c:04:fe:33:0e:40:e2:20:ba:02:73:5a:
                    f7:f5:4f:63:6e:cc:c6:b6:df:54:1d:37:39:7d:51:
                    36:26:5f:bd:dc:3f:a8:8b:6b:a2:ae:b6:9d:d6:21:
                    e7:df:41:b8:7a:28:2a:68:48:ca:a8:2d:ed:e1:e9:
                    46:5e:5a:72:6d:b4:84:38:87:91:fd:94:11:0b:28:
                    84:c6:c2:2f:2a:fb:01:f9:36:7a:09:75:d1:33:88:
                    3c:73:41:5b:c8:bf:94:89:70:a1:f0:c0:b9:2e:50:
                    53:1e:b1:17:64:69:f4:2d:81:e0:a9:0d:0e:32:e9:
                    ba:55:8a:85:f1:1b:6f:49:79:b4:7f:88:c3:0d:3e:
                    54:88:9b:3d:1f:38:8c:04:f3:ee:6a:63:2b:f5:c6:
                    db:b4:83:aa:c4:78:41:3a:7d:4b:e1:c8:3e:71:ca:
                    1b:61:59:ea:c6:c4:ca:32:5e:c9:e9:bf:12:29:e6:
                    c6:c3:63:fe:a0:55:da:7a:f1:60:98:4d:26:ed:fa:
                    70:2d
                Exponent: 65537 (0x10001)
        X509v3 extensions:
            X509v3 Key Usage: 
                Digital Signature, Key Encipherment
            X509v3 Basic Constraints: 
                CA:FALSE
            Netscape Cert Type: 
                SSL Server
            Netscape Comment: 
                OpenSSL Generated Server Certificate
            X509v3 Subject Key Identifier: 
                53:3F:ED:5D:09:07:B3:65:7B:AB:45:C9:24:5B:09:77:80:0A:96:ED
            X509v3 Authority Key Identifier: 
                keyid:F4:A7:C0:CC:91:46:AF:64:F3:91:F2:27:F8:C8:B2:6F:8A:87:32:73
                DirName:/C=DE/ST=Hessen/O=privacyidea/CN=CA001
                serial:FB:C8:EB:AC:83:CD:12:07

            X509v3 Extended Key Usage: 
                TLS Web Server Authentication
    Signature Algorithm: sha256WithRSAEncryption
         0d:ea:2a:f3:4d:b7:0a:b7:d1:02:ad:d3:93:07:22:b6:8d:20:
         ca:3b:44:23:4c:0c:b8:19:87:6c:5a:29:9a:19:03:d7:f5:ff:
         b5:06:8f:03:b4:e4:8e:37:d1:a9:da:f8:fb:79:9d:af:bc:d5:
         8d:72:4c:28:04:bb:59:1f:69:35:ad:e8:c8:bc:c0:6d:c4:ab:
         b4:62:e9:db:21:48:e3:8c:2a:b9:c2:07:a4:0d:f4:00:19:1b:
         5d:8f:e6:51:c7:29:f9:4d:84:55:1d:93:16:c0:01:2e:22:ec:
         ca:cb:dd:31:a7:c5:6e:4f:ed:b5:7f:e4:6f:55:14:a9:25:b6:
         1a:1e:1f:b0:3b:85:20:e4:99:5e:72:0b:bd:f3:b3:7c:20:a1:
         f5:da:92:f5:aa:57:d6:40:ab:48:b1:b3:d3:8d:21:ac:e8:78:
         8d:59:1f:e6:da:35:1c:c1:a5:d2:08:0e:21:bc:60:f6:97:da:
         60:db:77:1c:08:7e:c6:c9:81:6a:cb:2f:17:14:49:b9:6b:b7:
         da:c7:00:94:41:48:ed:c7:80:c3:17:fc:b2:e2:9d:62:3f:33:
         3b:84:30:78:9d:2d:9c:f9:b2:f2:ed:b5:47:d0:1d:7f:bc:a0:
         22:7c:cd:cf:41:db:19:91:e8:0e:62:c6:45:8d:51:69:24:3b:
         3d:47:45:4c
-----BEGIN CERTIFICATE-----
MIIEJjCCAw6gAwIBAgIEEAAA0TANBgkqhkiG9w0BAQsFADBEMQswCQYDVQQGEwJE
RTEPMA0GA1UECAwGSGVzc2VuMRQwEgYDVQQKDAtwcml2YWN5aWRlYTEOMAwGA1UE
AwwFQ0EwMDEwHhcNMTcwMzA2MTU0MjM2WhcNMTgwMzA2MTU0MjM2WjBUMQswCQYD
VQQGEwJERTEPMA0GA1UECAwGSGVzc2VuMRQwEgYDVQQKDAtwcml2YWN5aWRlYTEe
MBwGA1UEAwwVcmVxdWVzdGVyLmxvY2FsZG9tYWluMIIBIjANBgkqhkiG9w0BAQEF
AAOCAQ8AMIIBCgKCAQEAzb4UT/rOAT9CIhsdnK/dktJ/22y3PjlDQ2sTA/EF9Ad0
vHZpKAuvGY7X/OPNxljyyn8IbVP8BwJEJMa0NEyMBP4zDkDiILoCc1r39U9jbszG
tt9UHTc5fVE2Jl+93D+oi2uirrad1iHn30G4eigqaEjKqC3t4elGXlpybbSEOIeR
/ZQRCyiExsIvKvsB+TZ6CXXRM4g8c0FbyL+UiXCh8MC5LlBTHrEXZGn0LYHgqQ0O
Mum6VYqF8RtvSXm0f4jDDT5UiJs9HziMBPPuamMr9cbbtIOqxHhBOn1L4cg+ccob
YVnqxsTKMl7J6b8SKebGw2P+oFXaevFgmE0m7fpwLQIDAQABo4IBDjCCAQowCwYD
VR0PBAQDAgWgMAkGA1UdEwQCMAAwEQYJYIZIAYb4QgEBBAQDAgZAMDMGCWCGSAGG
+EIBDQQmFiRPcGVuU1NMIEdlbmVyYXRlZCBTZXJ2ZXIgQ2VydGlmaWNhdGUwHQYD
VR0OBBYEFFM/7V0JB7Nle6tFySRbCXeACpbtMHQGA1UdIwRtMGuAFPSnwMyRRq9k
85HyJ/jIsm+KhzJzoUikRjBEMQswCQYDVQQGEwJERTEPMA0GA1UECAwGSGVzc2Vu
MRQwEgYDVQQKDAtwcml2YWN5aWRlYTEOMAwGA1UEAwwFQ0EwMDGCCQD7yOusg80S
BzATBgNVHSUEDDAKBggrBgEFBQcDATANBgkqhkiG9w0BAQsFAAOCAQEADeoq8023
CrfRAq3Tkwcito0gyjtEI0wMuBmHbFopmhkD1/X/tQaPA7TkjjfRqdr4+3mdr7zV
jXJMKAS7WR9pNa3oyLzAbcSrtGLp2yFI44wqucIHpA30ABkbXY/mUccp+U2EVR2T
FsABLiLsysvdMafFbk/ttX/kb1UUqSW2Gh4fsDuFIOSZXnILvfOzfCCh9dqS9apX
1kCrSLGz040hrOh4jVkf5to1HMGl0ggOIbxg9pfaYNt3HAh+xsmBassvFxRJuWu3
2scAlEFI7ceAwxf8suKdYj8zO4QweJ0tnPmy8u21R9Adf7ygInzNz0HbGZHoDmLG
RY1RaSQ7PUdFTA==
-----END CERTIFICATE-----
