Certificate:
    Data:
        Version: 3 (0x2)
        Serial Number: 268435675 (0x100000db)
    Signature Algorithm: sha256WithRSAEncryption
        Issuer: C=DE, ST=Hessen, O=privacyidea, CN=CA001
        Validity
            Not Before: Mar  3 20:19:04 2017 GMT
            Not After : Mar  3 20:19:04 2018 GMT
        Subject: CN=Steve Test/emailAddress=steve@openssl.org
        Subject Public Key Info:
            Public Key Algorithm: rsaEncryption
                Public-Key: (2048 bit)
                Modulus:
                    00:d2:81:89:20:51:48:0f:73:f4:11:32:24:d5:1f:
                    1c:fd:5c:f5:b6:e6:c5:f0:52:81:dc:d2:af:66:4a:
                    7c:93:31:61:5c:af:d1:6d:06:70:03:60:7c:72:0c:
                    88:dd:49:cd:9e:02:6c:d2:5a:d7:53:0f:f3:da:be:
                    69:64:b5:0f:0c:00:e3:b3:50:47:a3:b3:9b:ba:13:
                    50:d6:58:5a:4b:ab:39:e0:11:ca:0a:27:67:03:78:
                    22:66:6d:92:1e:1b:5c:49:ae:e6:6b:d1:8e:3b:9d:
                    06:d3:c6:ac:4d:53:43:10:ab:e8:96:c1:87:82:97:
                    99:8f:20:d3:99:12:37:31:84:e1:8a:ff:29:03:5f:
                    22:90:3e:7f:9b:e0:20:c1:ad:dc:ae:4c:39:1a:31:
                    96:17:02:8c:b2:d9:b4:0d:20:12:9b:7d:86:54:fd:
                    33:fd:c1:2a:62:46:f8:60:96:cf:6e:01:6f:22:df:
                    13:47:e7:97:ec:05:72:23:a3:62:f8:fa:ef:ac:9c:
                    72:f0:37:cb:2f:37:cf:90:a8:27:51:86:c6:d7:78:
                    08:8f:7e:25:a2:15:70:a2:fb:1c:b6:15:5e:a0:97:
                    8b:81:4c:09:28:8a:27:3b:94:bc:71:db:5b:71:37:
                    9a:2b:16:e0:6f:b5:c9:f5:4b:4f:20:ba:65:cf:af:
                    ad:ad
                Exponent: 65537 (0x10001)
        X509v3 extensions:
            X509v3 Key Usage: 
                Digital Signature, Key Encipherment
            X509v3 Basic Constraints: 
                CA:FALSE
            Netscape Cert Type: 
                SSL Server
            Netscape Comment: 
                OpenSSL Generated Server Certificate
            X509v3 Subject Key Identifier: 
                E5:25:6D:3E:AF:0D:DD:3F:4C:F2:45:19:39:D5:14:DB:7E:9C:C0:AD
            X509v3 Authority Key Identifier: 
                keyid:F4:A7:C0:CC:91:46:AF:64:F3:91:F2:27:F8:C8:B2:6F:8A:87:32:73
                DirName:/C=DE/ST=Hessen/O=privacyidea/CN=CA001
                serial:FB:C8:EB:AC:83:CD:12:07

            X509v3 Extended Key Usage: 
                TLS Web Server Authentication
    Signature Algorithm: sha256WithRSAEncryption
         31:b7:8b:dd:59:c8:c2:99:f2:cd:76:1a:6e:6d:99:1f:a1:55:
         99:57:f8:df:7b:a3:93:4b:2e:35:16:ab:78:80:e2:96:37:d5:
         43:8d:40:02:64:f4:93:7a:80:95:2c:e5:c5:5b:5f:fa:c3:a2:
         2d:0d:cb:9b:3b:ac:be:9e:4e:86:ef:62:78:60:32:2a:6f:53:
         53:35:c6:9d:e8:e3:3b:dd:51:8a:ff:66:4a:d9:aa:b6:6c:84:
         cb:a9:1f:ab:52:25:c5:d6:20:f2:2d:00:f7:ad:f5:31:6c:f6:
         19:65:8c:f7:8f:10:02:c0:10:31:8a:39:36:dc:5a:c1:38:23:
         8a:ce:3a:83:98:e3:e2:b7:d3:15:a8:9c:d0:53:41:59:32:f2:
         1d:9a:8e:49:d4:0d:c1:9c:d3:29:d1:45:f3:0f:9e:16:1b:97:
         28:eb:f6:ca:0b:fa:2b:b1:df:c2:85:11:68:4c:8f:49:76:a3:
         fb:9e:11:66:8a:60:03:a9:d9:c2:54:d7:72:f9:58:77:9e:a7:
         85:f4:5c:32:fa:5b:84:a5:aa:ff:65:82:2e:66:92:b0:fb:94:
         05:c9:4d:4b:7b:84:a4:78:6f:7f:1e:fa:81:88:a1:bf:0a:d6:
         f8:d1:70:3e:0a:9c:f6:07:b9:a1:6e:36:c7:e6:13:06:ad:97:
         4f:f4:68:08
-----BEGIN CERTIFICATE-----
MIIECTCCAvGgAwIBAgIEEAAA2zANBgkqhkiG9w0BAQsFADBEMQswCQYDVQQGEwJE
RTEPMA0GA1UECAwGSGVzc2VuMRQwEgYDVQQKDAtwcml2YWN5aWRlYTEOMAwGA1UE
AwwFQ0EwMDEwHhcNMTcwMzAzMjAxOTA0WhcNMTgwMzAzMjAxOTA0WjA3MRMwEQYD
VQQDDApTdGV2ZSBUZXN0MSAwHgYJKoZIhvcNAQkBFhFzdGV2ZUBvcGVuc3NsLm9y
ZzCCASIwDQYJKoZIhvcNAQEBBQADggEPADCCAQoCggEBANKBiSBRSA9z9BEyJNUf
HP1c9bbmxfBSgdzSr2ZKfJMxYVyv0W0GcANgfHIMiN1JzZ4CbNJa11MP89q+aWS1
DwwA47NQR6Ozm7oTUNZYWkurOeARygonZwN4ImZtkh4bXEmu5mvRjjudBtPGrE1T
QxCr6JbBh4KXmY8g05kSNzGE4Yr/KQNfIpA+f5vgIMGt3K5MORoxlhcCjLLZtA0g
Ept9hlT9M/3BKmJG+GCWz24BbyLfE0fnl+wFciOjYvj676yccvA3yy83z5CoJ1GG
xtd4CI9+JaIVcKL7HLYVXqCXi4FMCSiKJzuUvHHbW3E3misW4G+1yfVLTyC6Zc+v
ra0CAwEAAaOCAQ4wggEKMAsGA1UdDwQEAwIFoDAJBgNVHRMEAjAAMBEGCWCGSAGG
+EIBAQQEAwIGQDAzBglghkgBhvhCAQ0EJhYkT3BlblNTTCBHZW5lcmF0ZWQgU2Vy
dmVyIENlcnRpZmljYXRlMB0GA1UdDgQWBBTlJW0+rw3dP0zyRRk51RTbfpzArTB0
BgNVHSMEbTBrgBT0p8DMkUavZPOR8if4yLJviocyc6FIpEYwRDELMAkGA1UEBhMC
REUxDzANBgNVBAgMBkhlc3NlbjEUMBIGA1UECgwLcHJpdmFjeWlkZWExDjAMBgNV
BAMMBUNBMDAxggkA+8jrrIPNEgcwEwYDVR0lBAwwCgYIKwYBBQUHAwEwDQYJKoZI
hvcNAQELBQADggEBADG3i91ZyMKZ8s12Gm5tmR+hVZlX+N97o5NLLjUWq3iA4pY3
1UONQAJk9JN6gJUs5cVbX/rDoi0Ny5s7rL6eTobvYnhgMipvU1M1xp3o4zvdUYr/
ZkrZqrZshMupH6tSJcXWIPItAPet9TFs9hlljPePEALAEDGKOTbcWsE4I4rOOoOY
4+K30xWonNBTQVky8h2ajknUDcGc0ynRRfMPnhYblyjr9soL+iux38KFEWhMj0l2
o/ueEWaKYAOp2cJU13L5WHeep4X0XDL6W4Slqv9lgi5mkrD7lAXJTUt7hKR4b38e
+oGIob8K1vjRcD4KnPYHuaFuNsfmEwatl0/0aAg=
-----END CERTIFICATE-----
