Certificate:
    Data:
        Version: 3 (0x2)
        Serial Number: 268435678 (0x100000de)
    Signature Algorithm: sha256WithRSAEncryption
        Issuer: C=DE, ST=Hessen, O=privacyidea, CN=CA001
        Validity
            Not Before: Mar  3 20:22:57 2017 GMT
            Not After : Mar  3 20:22:57 2018 GMT
        Subject: OU=realm1, CN=cornelius/emailAddress=user@localhost.localdomain
        Subject Public Key Info:
            Public Key Algorithm: rsaEncryption
                Public-Key: (2048 bit)
                Modulus:
                    00:b6:50:a8:f2:77:90:98:f3:f1:49:97:0c:e4:8f:
                    a0:0d:3c:aa:56:02:89:9b:c4:8f:f2:3f:8f:bf:f5:
                    8f:14:35:ce:07:93:4e:aa:c2:80:12:14:4a:00:a0:
                    61:24:cc:50:5e:46:3e:35:ab:a0:06:27:b0:fb:67:
                    da:cc:ad:7c:92:28:35:9c:2e:99:90:75:28:b9:9a:
                    01:f5:02:94:ea:75:d1:15:43:1d:10:ea:f1:f6:6e:
                    1c:61:04:72:19:d4:36:3e:7b:db:73:c0:0b:2a:28:
                    45:bd:ce:f3:d5:7f:7b:40:9c:ad:81:47:d4:7a:f0:
                    49:22:d2:28:03:8d:d4:ff:66:20:63:84:98:c5:5a:
                    15:7e:ab:15:23:be:a2:e6:e6:b8:ae:8b:81:30:f2:
                    43:ec:7f:29:65:f3:2b:5e:9b:d8:65:56:d0:ea:bb:
                    12:65:e3:ad:4b:fa:1d:e8:e7:7b:ec:1d:bc:60:3d:
                    7a:a4:56:1b:68:60:5d:c7:86:37:2e:58:45:55:19:
                    70:c7:fb:c9:a0:bc:78:44:2a:28:07:ed:97:23:cf:
                    01:a6:07:c3:ef:48:49:c9:91:d1:2b:96:c2:19:f0:
                    d9:06:d7:ca:f8:48:09:82:81:1e:cd:89:40:b9:a1:
                    c9:16:46:16:9e:58:19:10:df:cb:bb:60:2f:eb:5a:
                    6e:21
                Exponent: 65537 (0x10001)
        X509v3 extensions:
            X509v3 Key Usage: 
                Digital Signature, Key Encipherment
            X509v3 Basic Constraints: 
                CA:FALSE
            Netscape Cert Type: 
                SSL Server
            Netscape Comment: 
                OpenSSL Generated Server Certificate
            X509v3 Subject Key Identifier: 
                38:08:B1:99:54:75:21:D6:5C:67:4D:89:27:19:6D:42:76:F6:72:6C
            X509v3 Authority Key Identifier: 
                keyid:F4:A7:C0:CC:91:46:AF:64:F3:91:F2:27:F8:C8:B2:6F:8A:87:32:73
                DirName:/C=DE/ST=Hessen/O=privacyidea/CN=CA001
                serial:FB:C8:EB:AC:83:CD:12:07

            X509v3 Extended Key Usage: 
                TLS Web Server Authentication
    Signature Algorithm: sha256WithRSAEncryption
         b3:90:1f:24:73:c3:50:3c:72:3c:4f:dc:6d:f3:8c:f1:60:9f:
         f2:25:f3:fb:f6:3c:81:12:5f:fd:4e:0b:54:dd:0c:13:4a:aa:
         bb:48:38:5e:c8:90:27:ca:08:ed:69:73:45:78:54:dd:a0:e8:
         97:65:1b:ee:2f:cb:ab:80:17:80:53:d9:38:f2:1e:43:44:75:
         7e:bd:3e:9d:08:4b:f1:bf:89:49:98:d3:40:7e:05:c5:b5:9d:
         77:e4:c1:8c:21:de:59:e6:f2:d9:14:6a:ba:d3:5d:b4:b9:73:
         be:45:85:2b:c9:61:71:da:79:0e:7b:d8:9a:78:9e:00:71:7f:
         56:74:d3:45:dd:b9:71:f1:5a:2a:92:f5:5c:f6:31:c6:75:65:
         38:63:48:4d:cc:8b:93:0c:7e:f7:39:65:83:b6:b7:e2:2a:c7:
         ba:33:e9:ff:14:ee:bd:8a:0a:23:b1:ee:2b:92:68:b3:3a:2f:
         89:ef:7e:bf:c3:ad:e4:b5:74:e7:92:ad:b3:da:94:9e:be:1e:
         4f:44:ff:0c:de:2b:a0:c7:fa:49:8c:7b:1e:01:e2:e5:51:85:
         ec:d3:43:a5:6e:1c:8e:dd:bc:98:57:31:3f:f3:3c:62:69:e1:
         8c:3d:3c:8d:8a:df:95:87:3e:67:c3:91:18:69:c8:fa:73:49:
         21:94:b4:22
-----BEGIN CERTIFICATE-----
MIIEIjCCAwqgAwIBAgIEEAAA3jANBgkqhkiG9w0BAQsFADBEMQswCQYDVQQGEwJE
RTEPMA0GA1UECAwGSGVzc2VuMRQwEgYDVQQKDAtwcml2YWN5aWRlYTEOMAwGA1UE
AwwFQ0EwMDEwHhcNMTcwMzAzMjAyMjU3WhcNMTgwMzAzMjAyMjU3WjBQMQ8wDQYD
VQQLDAZyZWFsbTExEjAQBgNVBAMMCWNvcm5lbGl1czEpMCcGCSqGSIb3DQEJARYa
dXNlckBsb2NhbGhvc3QubG9jYWxkb21haW4wggEiMA0GCSqGSIb3DQEBAQUAA4IB
DwAwggEKAoIBAQC2UKjyd5CY8/FJlwzkj6ANPKpWAombxI/yP4+/9Y8UNc4Hk06q
woASFEoAoGEkzFBeRj41q6AGJ7D7Z9rMrXySKDWcLpmQdSi5mgH1ApTqddEVQx0Q
6vH2bhxhBHIZ1DY+e9tzwAsqKEW9zvPVf3tAnK2BR9R68Eki0igDjdT/ZiBjhJjF
WhV+qxUjvqLm5riui4Ew8kPsfyll8ytem9hlVtDquxJl461L+h3o53vsHbxgPXqk
VhtoYF3HhjcuWEVVGXDH+8mgvHhEKigH7ZcjzwGmB8PvSEnJkdErlsIZ8NkG18r4
SAmCgR7NiUC5ockWRhaeWBkQ38u7YC/rWm4hAgMBAAGjggEOMIIBCjALBgNVHQ8E
BAMCBaAwCQYDVR0TBAIwADARBglghkgBhvhCAQEEBAMCBkAwMwYJYIZIAYb4QgEN
BCYWJE9wZW5TU0wgR2VuZXJhdGVkIFNlcnZlciBDZXJ0aWZpY2F0ZTAdBgNVHQ4E
FgQUOAixmVR1IdZcZ02JJxltQnb2cmwwdAYDVR0jBG0wa4AU9KfAzJFGr2TzkfIn
+Miyb4qHMnOhSKRGMEQxCzAJBgNVBAYTAkRFMQ8wDQYDVQQIDAZIZXNzZW4xFDAS
BgNVBAoMC3ByaXZhY3lpZGVhMQ4wDAYDVQQDDAVDQTAwMYIJAPvI66yDzRIHMBMG
A1UdJQQMMAoGCCsGAQUFBwMBMA0GCSqGSIb3DQEBCwUAA4IBAQCzkB8kc8NQPHI8
T9xt84zxYJ/yJfP79jyBEl/9TgtU3QwTSqq7SDheyJAnygjtaXNFeFTdoOiXZRvu
L8urgBeAU9k48h5DRHV+vT6dCEvxv4lJmNNAfgXFtZ135MGMId5Z5vLZFGq60120
uXO+RYUryWFx2nkOe9iaeJ4AcX9WdNNF3blx8VoqkvVc9jHGdWU4Y0hNzIuTDH73
OWWDtrfiKse6M+n/FO69igojse4rkmizOi+J736/w63ktXTnkq2z2pSevh5PRP8M
3iugx/pJjHseAeLlUYXs00OlbhyO3byYVzE/8zxiaeGMPTyNit+Vhz5nw5EYacj6
c0khlLQi
-----END CERTIFICATE-----
