Certificate:
    Data:
        Version: 3 (0x2)
        Serial Number: 268435670 (0x100000d6)
    Signature Algorithm: sha256WithRSAEncryption
        Issuer: C=DE, ST=Hessen, O=privacyidea, CN=CA001
        Validity
            Not Before: Mar  6 15:46:05 2017 GMT
            Not After : Mar  6 15:46:05 2018 GMT
        Subject: OU=realm1, CN=cornelius/emailAddress=user@localhost.localdomain
        Subject Public Key Info:
            Public Key Algorithm: rsaEncryption
                Public-Key: (2048 bit)
                Modulus:
                    00:af:f5:f9:aa:64:eb:86:ff:ef:a4:33:98:81:64:
                    9c:bb:d0:54:78:db:fd:8a:40:b2:98:05:b9:25:7a:
                    b4:16:de:cb:3f:d9:98:96:94:96:07:e4:45:e8:b0:
                    91:29:f7:77:19:50:0e:87:e0:7e:46:76:26:f7:0c:
                    ae:81:fb:21:e0:64:a7:d4:11:b2:0d:ab:bd:2e:87:
                    aa:b4:84:d5:9b:44:b2:06:86:47:08:cb:45:12:89:
                    c1:b7:6f:fd:e8:03:bc:dd:18:a1:e1:59:e0:ea:8e:
                    c5:78:87:f6:40:21:4e:e1:51:d3:2a:49:34:11:44:
                    d2:f6:a1:ae:7a:5e:11:db:17:a8:c5:0e:f6:ee:33:
                    2d:93:b1:40:fc:e0:94:45:a8:29:a5:db:42:ed:56:
                    cc:04:3c:9b:3d:8b:6a:d5:8f:5a:26:92:64:d3:60:
                    89:dd:b4:c3:a3:25:42:fa:77:b5:b6:42:8c:13:86:
                    45:f0:fe:f1:b4:b9:c7:59:28:d0:c1:85:4c:f2:6b:
                    c5:75:d6:a6:61:9a:63:b7:21:54:9a:0f:27:51:09:
                    d6:5a:bf:5d:0b:1f:cb:8f:bd:05:44:e0:ea:07:4f:
                    71:8c:eb:6c:01:a3:b8:5c:a8:82:9d:fd:8c:bd:e6:
                    d1:be:d5:44:4f:09:c0:55:9c:34:56:f1:08:07:32:
                    c3:ef
                Exponent: 65537 (0x10001)
        X509v3 extensions:
            X509v3 Key Usage: 
                Digital Signature, Key Encipherment
            X509v3 Basic Constraints: 
                CA:FALSE
            Netscape Cert Type: 
                SSL Server
            Netscape Comment: 
                OpenSSL Generated Server Certificate
            X509v3 Subject Key Identifier: 
                BA:60:01:E3:85:AC:91:50:4E:C1:C2:A3:6A:39:97:F8:96:E9:30:E0
            X509v3 Authority Key Identifier: 
                keyid:F4:A7:C0:CC:91:46:AF:64:F3:91:F2:27:F8:C8:B2:6F:8A:87:32:73
                DirName:/C=DE/ST=Hessen/O=privacyidea/CN=CA001
                serial:FB:C8:EB:AC:83:CD:12:07

            X509v3 Extended Key Usage: 
                TLS Web Server Authentication
    Signature Algorithm: sha256WithRSAEncryption
         a7:5d:ab:b8:50:c8:8b:8a:08:eb:b8:4f:7b:28:d4:e7:b1:9a:
         10:f1:7f:e3:bc:ea:c0:d3:dc:9d:cb:f5:1a:e1:a5:0a:87:bc:
         11:84:87:06:fa:28:52:e1:c3:d9:3d:57:2d:af:93:9f:81:d1:
         1b:16:4a:10:cf:f1:e1:17:90:31:44:53:ce:ae:4c:1a:8f:d7:
         c3:74:63:42:01:d1:98:ed:e0:ae:6b:aa:7e:9a:99:9b:18:45:
         61:59:bb:18:8d:7c:fa:8e:6f:b3:16:6b:f6:cc:70:8b:c5:92:
         ee:6d:5a:88:fd:c7:6f:15:e8:13:02:45:e6:ca:92:ff:e7:b3:
         be:d7:0c:a7:0c:25:40:e8:44:0b:07:d6:6c:3b:1c:0a:30:8b:
         87:7e:a7:eb:45:4a:e6:40:95:19:53:5e:9e:c0:22:66:a5:9a:
         97:7a:05:25:fa:7f:0f:65:4a:56:58:d0:33:48:b1:7d:d9:c9:
         7e:1a:67:c4:b7:99:c4:13:c5:87:71:3b:12:84:59:c9:6a:0a:
         63:a2:cd:ee:c1:42:4e:7b:b9:8c:eb:e2:db:25:89:62:64:9d:
         0e:5b:de:51:ca:b8:f0:b7:43:8e:40:8c:f6:26:fd:16:92:41:
         3e:8d:9c:db:64:2b:4f:24:c2:08:d7:c3:27:37:b3:3f:48:0e:
         ae:9c:c3:2d
-----BEGIN CERTIFICATE-----
MIIEIjCCAwqgAwIBAgIEEAAA1jANBgkqhkiG9w0BAQsFADBEMQswCQYDVQQGEwJE
RTEPMA0GA1UECAwGSGVzc2VuMRQwEgYDVQQKDAtwcml2YWN5aWRlYTEOMAwGA1UE
AwwFQ0EwMDEwHhcNMTcwMzA2MTU0NjA1WhcNMTgwMzA2MTU0NjA1WjBQMQ8wDQYD
VQQLDAZyZWFsbTExEjAQBgNVBAMMCWNvcm5lbGl1czEpMCcGCSqGSIb3DQEJARYa
dXNlckBsb2NhbGhvc3QubG9jYWxkb21haW4wggEiMA0GCSqGSIb3DQEBAQUAA4IB
DwAwggEKAoIBAQCv9fmqZOuG/++kM5iBZJy70FR42/2KQLKYBbklerQW3ss/2ZiW
lJYH5EXosJEp93cZUA6H4H5Gdib3DK6B+yHgZKfUEbINq70uh6q0hNWbRLIGhkcI
y0USicG3b/3oA7zdGKHhWeDqjsV4h/ZAIU7hUdMqSTQRRNL2oa56XhHbF6jFDvbu
My2TsUD84JRFqCml20LtVswEPJs9i2rVj1omkmTTYIndtMOjJUL6d7W2QowThkXw
/vG0ucdZKNDBhUzya8V11qZhmmO3IVSaDydRCdZav10LH8uPvQVE4OoHT3GM62wB
o7hcqIKd/Yy95tG+1URPCcBVnDRW8QgHMsPvAgMBAAGjggEOMIIBCjALBgNVHQ8E
BAMCBaAwCQYDVR0TBAIwADARBglghkgBhvhCAQEEBAMCBkAwMwYJYIZIAYb4QgEN
BCYWJE9wZW5TU0wgR2VuZXJhdGVkIFNlcnZlciBDZXJ0aWZpY2F0ZTAdBgNVHQ4E
FgQUumAB44WskVBOwcKjajmX+JbpMOAwdAYDVR0jBG0wa4AU9KfAzJFGr2TzkfIn
+Miyb4qHMnOhSKRGMEQxCzAJBgNVBAYTAkRFMQ8wDQYDVQQIDAZIZXNzZW4xFDAS
BgNVBAoMC3ByaXZhY3lpZGVhMQ4wDAYDVQQDDAVDQTAwMYIJAPvI66yDzRIHMBMG
A1UdJQQMMAoGCCsGAQUFBwMBMA0GCSqGSIb3DQEBCwUAA4IBAQCnXau4UMiLigjr
uE97KNTnsZoQ8X/jvOrA09ydy/Ua4aUKh7wRhIcG+ihS4cPZPVctr5OfgdEbFkoQ
z/HhF5AxRFPOrkwaj9fDdGNCAdGY7eCua6p+mpmbGEVhWbsYjXz6jm+zFmv2zHCL
xZLubVqI/cdvFegTAkXmypL/57O+1wynDCVA6EQLB9ZsOxwKMIuHfqfrRUrmQJUZ
U16ewCJmpZqXegUl+n8PZUpWWNAzSLF92cl+GmfEt5nEE8WHcTsShFnJagpjos3u
wUJOe7mM6+LbJYliZJ0OW95Ryrjwt0OOQIz2Jv0WkkE+jZzbZCtPJMII18MnN7M/
SA6unMMt
-----END CERTIFICATE-----
