Certificate:
    Data:
        Version: 3 (0x2)
        Serial Number: 268435666 (0x100000d2)
    Signature Algorithm: sha256WithRSAEncryption
        Issuer: C=DE, ST=Hessen, O=privacyidea, CN=CA001
        Validity
            Not Before: Mar  6 15:42:36 2017 GMT
            Not After : Mar  6 15:42:36 2018 GMT
        Subject: C=DE, ST=Hessen, O=privacyidea, CN=usercert
        Subject Public Key Info:
            Public Key Algorithm: rsaEncryption
                Public-Key: (2048 bit)
                Modulus:
                    00:dc:2f:d1:5f:29:97:d4:7c:c3:53:c8:30:bd:4b:
                    67:70:2c:24:6b:b8:5e:eb:21:7a:48:12:56:7c:81:
                    5c:48:75:b6:68:eb:f6:f2:98:4e:50:51:d1:7f:6c:
                    73:f3:0a:a7:ae:be:48:5e:e5:d6:e1:d9:2a:7c:32:
                    6e:4e:fd:08:f6:5a:54:49:23:73:c3:b9:07:18:d1:
                    ef:b3:ac:f8:8a:dc:94:96:a4:90:3a:8e:74:df:e6:
                    0d:37:1b:bd:5b:b7:25:1a:56:39:da:6f:91:aa:5e:
                    1c:74:f3:f9:7c:14:01:83:12:65:76:c7:bb:fe:36:
                    5b:95:e9:72:65:83:ed:3e:98:30:71:fa:87:dd:a3:
                    36:5a:30:03:2e:26:e0:61:d1:bf:02:3f:b6:06:1f:
                    4a:89:28:1c:5c:a2:ff:4e:be:94:e6:8c:e0:da:82:
                    f1:9d:29:32:48:30:73:b4:04:f6:42:1e:be:f7:e2:
                    32:32:27:3c:9d:89:2f:70:3e:85:9a:6f:5c:c5:09:
                    c0:8c:32:2f:72:22:c9:d2:95:1f:b6:ac:72:60:72:
                    b7:82:4d:6b:ce:5b:e3:00:d0:d2:2f:58:c6:e0:10:
                    e5:51:ca:4d:3b:2e:e6:7e:ab:84:d6:56:f1:93:35:
                    a0:93:64:26:81:75:2f:91:b5:16:06:38:0b:db:cc:
                    2d:07
                Exponent: 65537 (0x10001)
        X509v3 extensions:
            X509v3 Key Usage: 
                Digital Signature, Key Encipherment
            X509v3 Basic Constraints: 
                CA:FALSE
            Netscape Cert Type: 
                SSL Server
            Netscape Comment: 
                OpenSSL Generated Server Certificate
            X509v3 Subject Key Identifier: 
                FC:14:D1:F0:4B:8D:00:90:F2:F5:B8:71:9E:4E:97:C3:92:54:AD:0B
            X509v3 Authority Key Identifier: 
                keyid:F4:A7:C0:CC:91:46:AF:64:F3:91:F2:27:F8:C8:B2:6F:8A:87:32:73
                DirName:/C=DE/ST=Hessen/O=privacyidea/CN=CA001
                serial:FB:C8:EB:AC:83:CD:12:07

            X509v3 Extended Key Usage: 
                TLS Web Server Authentication
    Signature Algorithm: sha256WithRSAEncryption
         02:2f:5a:6f:b5:5a:46:73:27:72:f0:29:5c:d7:e2:e4:52:65:
         e8:3c:09:21:fc:aa:37:3b:8f:1f:a4:61:59:f3:30:1d:09:84:
         fc:1a:14:71:b0:ab:8e:34:c0:0c:9b:e7:f8:db:ee:45:52:84:
         f8:fc:94:db:fc:5d:91:ab:c1:6b:8b:a2:28:64:62:26:dd:a3:
         a4:41:2d:8c:f3:bd:a7:26:2d:db:3e:f0:37:dd:66:eb:35:b5:
         63:cc:d6:99:9d:9d:cf:50:56:2a:92:8a:9e:d2:8c:31:d2:4a:
         78:d4:91:81:e3:2c:8f:74:53:eb:1d:4f:05:1d:be:4b:63:cb:
         e9:6f:80:7c:64:ac:30:0c:6a:42:2d:a3:b2:50:37:14:15:b3:
         49:01:35:28:16:07:78:00:b7:ec:65:a2:5c:08:5a:a4:b7:fb:
         ae:7e:1b:70:6a:10:66:cc:c1:cf:2e:b2:63:91:ff:54:40:ff:
         de:8e:05:03:61:08:ac:99:82:d7:3c:c6:83:b7:15:bf:7f:9a:
         23:d7:61:c4:85:41:71:37:c8:c2:45:72:01:55:5a:d9:81:02:
         fa:cf:de:f4:4b:21:6c:f6:58:fc:18:5f:cd:f4:cb:e8:cd:f9:
         f8:b2:15:0d:f7:35:83:7b:18:2d:05:2f:b1:10:9f:34:24:27:
         48:98:22:af
-----BEGIN CERTIFICATE-----
MIIEGTCCAwGgAwIBAgIEEAAA0jANBgkqhkiG9w0BAQsFADBEMQswCQYDVQQGEwJE
RTEPMA0GA1UECAwGSGVzc2VuMRQwEgYDVQQKDAtwcml2YWN5aWRlYTEOMAwGA1UE
AwwFQ0EwMDEwHhcNMTcwMzA2MTU0MjM2WhcNMTgwMzA2MTU0MjM2WjBHMQswCQYD
VQQGEwJERTEPMA0GA1UECAwGSGVzc2VuMRQwEgYDVQQKDAtwcml2YWN5aWRlYTER
MA8GA1UEAwwIdXNlcmNlcnQwggEiMA0GCSqGSIb3DQEBAQUAA4IBDwAwggEKAoIB
AQDcL9FfKZfUfMNTyDC9S2dwLCRruF7rIXpIElZ8gVxIdbZo6/bymE5QUdF/bHPz
Cqeuvkhe5dbh2Sp8Mm5O/Qj2WlRJI3PDuQcY0e+zrPiK3JSWpJA6jnTf5g03G71b
tyUaVjnab5GqXhx08/l8FAGDEmV2x7v+NluV6XJlg+0+mDBx+ofdozZaMAMuJuBh
0b8CP7YGH0qJKBxcov9OvpTmjODagvGdKTJIMHO0BPZCHr734jIyJzydiS9wPoWa
b1zFCcCMMi9yIsnSlR+2rHJgcreCTWvOW+MA0NIvWMbgEOVRyk07LuZ+q4TWVvGT
NaCTZCaBdS+RtRYGOAvbzC0HAgMBAAGjggEOMIIBCjALBgNVHQ8EBAMCBaAwCQYD
VR0TBAIwADARBglghkgBhvhCAQEEBAMCBkAwMwYJYIZIAYb4QgENBCYWJE9wZW5T
U0wgR2VuZXJhdGVkIFNlcnZlciBDZXJ0aWZpY2F0ZTAdBgNVHQ4EFgQU/BTR8EuN
AJDy9bhxnk6Xw5JUrQswdAYDVR0jBG0wa4AU9KfAzJFGr2TzkfIn+Miyb4qHMnOh
SKRGMEQxCzAJBgNVBAYTAkRFMQ8wDQYDVQQIDAZIZXNzZW4xFDASBgNVBAoMC3By
aXZhY3lpZGVhMQ4wDAYDVQQDDAVDQTAwMYIJAPvI66yDzRIHMBMGA1UdJQQMMAoG
CCsGAQUFBwMBMA0GCSqGSIb3DQEBCwUAA4IBAQACL1pvtVpGcydy8Clc1+LkUmXo
PAkh/Ko3O48fpGFZ8zAdCYT8GhRxsKuONMAMm+f42+5FUoT4/JTb/F2Rq8Fri6Io
ZGIm3aOkQS2M872nJi3bPvA33WbrNbVjzNaZnZ3PUFYqkoqe0owx0kp41JGB4yyP
dFPrHU8FHb5LY8vpb4B8ZKwwDGpCLaOyUDcUFbNJATUoFgd4ALfsZaJcCFqkt/uu
fhtwahBmzMHPLrJjkf9UQP/ejgUDYQismYLXPMaDtxW/f5oj12HEhUFxN8jCRXIB
VVrZgQL6z970SyFs9lj8GF/N9Mvozfn4shUN9zWDexgtBS+xEJ80JCdImCKv
-----END CERTIFICATE-----
