Certificate:
    Data:
        Version: 3 (0x2)
        Serial Number: 268435676 (0x100000dc)
    Signature Algorithm: sha256WithRSAEncryption
        Issuer: C=DE, ST=Hessen, O=privacyidea, CN=CA001
        Validity
            Not Before: Mar  1 14:53:24 2017 GMT
            Not After : Mar  1 14:53:24 2018 GMT
        Subject: CN=selfservice,CN=user,O=realm1/emailAddress=meine
        Subject Public Key Info:
            Public Key Algorithm: rsaEncryption
                Public-Key: (2048 bit)
                Modulus:
                    00:cf:3c:d4:33:0e:12:c4:e6:da:cd:b6:56:a1:1c:
                    26:bb:26:1c:8a:4a:73:a8:58:8a:b6:1e:b3:8b:99:
                    d2:1d:07:c2:92:89:79:c0:69:d8:c8:df:28:61:98:
                    1e:b3:fe:ae:2b:bd:78:a9:f7:6e:47:dc:a3:a0:16:
                    8c:85:02:c1:4e:92:fd:72:6e:f0:c8:03:29:9b:b8:
                    00:6e:c0:83:95:c8:34:20:36:9c:b3:e5:e4:e6:76:
                    73:a3:1a:ad:40:96:e0:53:54:00:ec:76:79:9a:c6:
                    0d:7e:b6:bd:29:ec:83:f3:cb:89:a4:cb:6c:00:ba:
                    0c:c5:78:0f:ff:69:b8:94:f4:04:70:43:3f:d8:9e:
                    d7:a7:fb:5d:ce:75:8e:da:e7:c4:07:b1:9d:de:6f:
                    88:4b:b6:4d:9a:cf:f9:bc:fa:9f:cd:32:6d:f6:3a:
                    0b:0d:23:42:78:ec:97:42:bf:0e:4d:60:56:e1:d3:
                    02:f2:19:cb:84:57:90:e5:70:a1:a2:83:35:86:e2:
                    da:86:9f:f9:8a:c4:79:b3:52:28:da:cb:bb:34:ca:
                    d3:da:91:4a:cf:8d:76:a2:b2:6b:9b:f9:96:fd:09:
                    2a:da:11:23:4d:f0:cb:d6:b2:b1:0e:12:6c:9a:19:
                    65:98:87:ca:e4:ee:24:ce:44:ac:90:8f:9d:1b:c5:
                    2a:9d
                Exponent: 65537 (0x10001)
        X509v3 extensions:
            X509v3 Key Usage: 
                Digital Signature, Key Encipherment
            X509v3 Basic Constraints: 
                CA:FALSE
            Netscape Cert Type: 
                SSL Server
            Netscape Comment: 
                OpenSSL Generated Server Certificate
            X509v3 Subject Key Identifier: 
                4D:07:90:AD:FF:1D:0D:E7:1A:DD:D6:2E:FA:BA:34:CB:AA:1F:24:C6
            X509v3 Authority Key Identifier: 
                keyid:F4:A7:C0:CC:91:46:AF:64:F3:91:F2:27:F8:C8:B2:6F:8A:87:32:73
                DirName:/C=DE/ST=Hessen/O=privacyidea/CN=CA001
                serial:FB:C8:EB:AC:83:CD:12:07

            X509v3 Extended Key Usage: 
                TLS Web Server Authentication
    Signature Algorithm: sha256WithRSAEncryption
         95:c8:69:6c:fb:b8:36:a4:41:b4:ee:7e:cb:f6:fd:44:23:95:
         fc:bf:cb:f5:25:68:ba:f6:c6:a5:88:9e:be:7e:8b:66:9e:94:
         e5:d8:2f:cb:a4:27:a7:16:91:fd:6a:21:45:2c:a4:55:d3:b1:
         f0:90:80:0f:87:e4:a1:15:f8:fc:4d:cb:17:68:ac:dd:d8:b8:
         f3:32:9d:e2:16:5a:c9:f2:20:e6:d7:d6:fd:29:f6:39:12:ce:
         76:25:ec:41:34:08:f3:d8:97:35:32:3b:4f:91:4a:cf:a6:9d:
         99:ce:72:2d:0d:1e:55:22:70:9b:75:95:64:7c:a8:9c:a2:73:
         5c:dd:a2:3d:6d:06:b8:21:51:c6:23:3a:8b:64:ff:29:be:a1:
         7f:4b:82:74:07:04:ed:4e:1c:52:ff:58:10:37:d5:f3:94:e2:
         35:0e:26:f1:67:c8:7d:af:a6:59:b7:0b:44:b2:08:1f:45:b9:
         d5:9d:1e:3a:8c:0c:9b:7f:ab:be:cf:8c:29:49:ff:d4:4f:a1:
         71:7a:44:50:f3:b2:d7:0e:a4:60:12:c5:f4:54:c3:fc:1c:32:
         ea:bf:ec:6c:44:2c:52:60:1c:08:4b:11:75:49:ad:8d:60:5d:
         14:60:9b:72:68:b2:59:be:86:bc:5f:8e:1d:85:f5:61:64:60:
         0b:45:25:e2
-----BEGIN CERTIFICATE-----
MIIEDzCCAvegAwIBAgIEEAAA3DANBgkqhkiG9w0BAQsFADBEMQswCQYDVQQGEwJE
RTEPMA0GA1UECAwGSGVzc2VuMRQwEgYDVQQKDAtwcml2YWN5aWRlYTEOMAwGA1UE
AwwFQ0EwMDEwHhcNMTcwMzAxMTQ1MzI0WhcNMTgwMzAxMTQ1MzI0WjA9MSUwIwYD
VQQDDBxzZWxmc2VydmljZSxDTj11c2VyLE89cmVhbG0xMRQwEgYJKoZIhvcNAQkB
FgVtZWluZTCCASIwDQYJKoZIhvcNAQEBBQADggEPADCCAQoCggEBAM881DMOEsTm
2s22VqEcJrsmHIpKc6hYirYes4uZ0h0HwpKJecBp2MjfKGGYHrP+riu9eKn3bkfc
o6AWjIUCwU6S/XJu8MgDKZu4AG7Ag5XINCA2nLPl5OZ2c6MarUCW4FNUAOx2eZrG
DX62vSnsg/PLiaTLbAC6DMV4D/9puJT0BHBDP9ie16f7Xc51jtrnxAexnd5viEu2
TZrP+bz6n80ybfY6Cw0jQnjsl0K/Dk1gVuHTAvIZy4RXkOVwoaKDNYbi2oaf+YrE
ebNSKNrLuzTK09qRSs+NdqKya5v5lv0JKtoRI03wy9aysQ4SbJoZZZiHyuTuJM5E
rJCPnRvFKp0CAwEAAaOCAQ4wggEKMAsGA1UdDwQEAwIFoDAJBgNVHRMEAjAAMBEG
CWCGSAGG+EIBAQQEAwIGQDAzBglghkgBhvhCAQ0EJhYkT3BlblNTTCBHZW5lcmF0
ZWQgU2VydmVyIENlcnRpZmljYXRlMB0GA1UdDgQWBBRNB5Ct/x0N5xrd1i76ujTL
qh8kxjB0BgNVHSMEbTBrgBT0p8DMkUavZPOR8if4yLJviocyc6FIpEYwRDELMAkG
A1UEBhMCREUxDzANBgNVBAgMBkhlc3NlbjEUMBIGA1UECgwLcHJpdmFjeWlkZWEx
DjAMBgNVBAMMBUNBMDAxggkA+8jrrIPNEgcwEwYDVR0lBAwwCgYIKwYBBQUHAwEw
DQYJKoZIhvcNAQELBQADggEBAJXIaWz7uDakQbTufsv2/UQjlfy/y/UlaLr2xqWI
nr5+i2aelOXYL8ukJ6cWkf1qIUUspFXTsfCQgA+H5KEV+PxNyxdorN3YuPMyneIW
WsnyIObX1v0p9jkSznYl7EE0CPPYlzUyO0+RSs+mnZnOci0NHlUicJt1lWR8qJyi
c1zdoj1tBrghUcYjOotk/ym+oX9LgnQHBO1OHFL/WBA31fOU4jUOJvFnyH2vplm3
C0SyCB9FudWdHjqMDJt/q77PjClJ/9RPoXF6RFDzstcOpGASxfRUw/wcMuq/7GxE
LFJgHAhLEXVJrY1gXRRgm3Joslm+hrxfjh2F9WFkYAtFJeI=
-----END CERTIFICATE-----
