Certificate:
    Data:
        Version: 3 (0x2)
        Serial Number: 268435668 (0x100000d4)
    Signature Algorithm: sha256WithRSAEncryption
        Issuer: C=DE, ST=Hessen, O=privacyidea, CN=CA001
        Validity
            Not Before: Mar  1 14:34:42 2017 GMT
            Not After : Mar 21 14:34:42 2019 GMT
        Subject: CN=Steve Test/emailAddress=steve@openssl.org
        Subject Public Key Info:
            Public Key Algorithm: rsaEncryption
                Public-Key: (2048 bit)
                Modulus:
                    00:d2:81:89:20:51:48:0f:73:f4:11:32:24:d5:1f:
                    1c:fd:5c:f5:b6:e6:c5:f0:52:81:dc:d2:af:66:4a:
                    7c:93:31:61:5c:af:d1:6d:06:70:03:60:7c:72:0c:
                    88:dd:49:cd:9e:02:6c:d2:5a:d7:53:0f:f3:da:be:
                    69:64:b5:0f:0c:00:e3:b3:50:47:a3:b3:9b:ba:13:
                    50:d6:58:5a:4b:ab:39:e0:11:ca:0a:27:67:03:78:
                    22:66:6d:92:1e:1b:5c:49:ae:e6:6b:d1:8e:3b:9d:
                    06:d3:c6:ac:4d:53:43:10:ab:e8:96:c1:87:82:97:
                    99:8f:20:d3:99:12:37:31:84:e1:8a:ff:29:03:5f:
                    22:90:3e:7f:9b:e0:20:c1:ad:dc:ae:4c:39:1a:31:
                    96:17:02:8c:b2:d9:b4:0d:20:12:9b:7d:86:54:fd:
                    33:fd:c1:2a:62:46:f8:60:96:cf:6e:01:6f:22:df:
                    13:47:e7:97:ec:05:72:23:a3:62:f8:fa:ef:ac:9c:
                    72:f0:37:cb:2f:37:cf:90:a8:27:51:86:c6:d7:78:
                    08:8f:7e:25:a2:15:70:a2:fb:1c:b6:15:5e:a0:97:
                    8b:81:4c:09:28:8a:27:3b:94:bc:71:db:5b:71:37:
                    9a:2b:16:e0:6f:b5:c9:f5:4b:4f:20:ba:65:cf:af:
                    ad:ad
                Exponent: 65537 (0x10001)
        X509v3 extensions:
            X509v3 Key Usage: 
                Digital Signature, Key Encipherment
            X509v3 Basic Constraints: 
                CA:FALSE
            Netscape Cert Type: 
                SSL Server
            Netscape Comment: 
                OpenSSL Generated Server Certificate
            X509v3 Subject Key Identifier: 
                E5:25:6D:3E:AF:0D:DD:3F:4C:F2:45:19:39:D5:14:DB:7E:9C:C0:AD
            X509v3 Authority Key Identifier: 
                keyid:F4:A7:C0:CC:91:46:AF:64:F3:91:F2:27:F8:C8:B2:6F:8A:87:32:73
                DirName:/C=DE/ST=Hessen/O=privacyidea/CN=CA001
                serial:FB:C8:EB:AC:83:CD:12:07

            X509v3 Extended Key Usage: 
                TLS Web Server Authentication
    Signature Algorithm: sha256WithRSAEncryption
         5f:96:a6:22:2e:54:67:50:29:42:c7:e6:80:76:7f:8a:32:3d:
         c7:ac:12:8c:87:6c:a4:96:d7:7b:53:29:61:6f:57:18:10:9c:
         49:2c:89:c4:a8:5e:d0:49:80:f8:91:32:21:f5:45:9d:34:24:
         9b:ba:2c:00:2a:86:b9:c6:55:10:f7:84:36:2c:05:c0:ac:34:
         e6:dd:ad:9d:fb:a7:65:d1:a1:f0:da:0b:e5:21:13:e4:c2:8f:
         c5:45:a5:2f:9c:3a:3c:90:93:fc:38:f3:1e:06:00:b1:0b:ed:
         ad:77:5c:d9:2b:be:6d:45:5e:94:86:de:68:67:57:02:ee:2f:
         10:32:a8:80:77:9c:51:d5:92:f5:bc:b4:4c:59:88:a4:9a:18:
         cf:3f:f9:d5:5e:c1:19:44:1f:0a:a6:24:7f:21:3b:62:7d:3d:
         5a:8a:a6:15:2e:05:2d:d7:6b:f2:26:1f:96:37:df:45:ab:bb:
         42:b4:99:cc:22:49:66:d0:0a:40:38:59:c5:70:23:9f:a7:49:
         7d:4d:88:68:ed:8e:05:37:ff:2d:64:46:95:c7:41:ef:95:ee:
         f2:d2:87:35:10:d1:f0:cb:ca:ae:c8:5f:6c:82:85:56:24:75:
         88:9c:ff:85:08:7b:74:ca:e0:a9:94:5d:d8:30:dc:0f:54:72:
         2b:ab:26:ca
-----BEGIN CERTIFICATE-----
MIIECTCCAvGgAwIBAgIEEAAA1DANBgkqhkiG9w0BAQsFADBEMQswCQYDVQQGEwJE
RTEPMA0GA1UECAwGSGVzc2VuMRQwEgYDVQQKDAtwcml2YWN5aWRlYTEOMAwGA1UE
AwwFQ0EwMDEwHhcNMTcwMzAxMTQzNDQyWhcNMTkwMzIxMTQzNDQyWjA3MRMwEQYD
VQQDDApTdGV2ZSBUZXN0MSAwHgYJKoZIhvcNAQkBFhFzdGV2ZUBvcGVuc3NsLm9y
ZzCCASIwDQYJKoZIhvcNAQEBBQADggEPADCCAQoCggEBANKBiSBRSA9z9BEyJNUf
HP1c9bbmxfBSgdzSr2ZKfJMxYVyv0W0GcANgfHIMiN1JzZ4CbNJa11MP89q+aWS1
DwwA47NQR6Ozm7oTUNZYWkurOeARygonZwN4ImZtkh4bXEmu5mvRjjudBtPGrE1T
QxCr6JbBh4KXmY8g05kSNzGE4Yr/KQNfIpA+f5vgIMGt3K5MORoxlhcCjLLZtA0g
Ept9hlT9M/3BKmJG+GCWz24BbyLfE0fnl+wFciOjYvj676yccvA3yy83z5CoJ1GG
xtd4CI9+JaIVcKL7HLYVXqCXi4FMCSiKJzuUvHHbW3E3misW4G+1yfVLTyC6Zc+v
ra0CAwEAAaOCAQ4wggEKMAsGA1UdDwQEAwIFoDAJBgNVHRMEAjAAMBEGCWCGSAGG
+EIBAQQEAwIGQDAzBglghkgBhvhCAQ0EJhYkT3BlblNTTCBHZW5lcmF0ZWQgU2Vy
dmVyIENlcnRpZmljYXRlMB0GA1UdDgQWBBTlJW0+rw3dP0zyRRk51RTbfpzArTB0
BgNVHSMEbTBrgBT0p8DMkUavZPOR8if4yLJviocyc6FIpEYwRDELMAkGA1UEBhMC
REUxDzANBgNVBAgMBkhlc3NlbjEUMBIGA1UECgwLcHJpdmFjeWlkZWExDjAMBgNV
BAMMBUNBMDAxggkA+8jrrIPNEgcwEwYDVR0lBAwwCgYIKwYBBQUHAwEwDQYJKoZI
hvcNAQELBQADggEBAF+WpiIuVGdQKULH5oB2f4oyPcesEoyHbKSW13tTKWFvVxgQ
nEksicSoXtBJgPiRMiH1RZ00JJu6LAAqhrnGVRD3hDYsBcCsNObdrZ37p2XRofDa
C+UhE+TCj8VFpS+cOjyQk/w48x4GALEL7a13XNkrvm1FXpSG3mhnVwLuLxAyqIB3
nFHVkvW8tExZiKSaGM8/+dVewRlEHwqmJH8hO2J9PVqKphUuBS3Xa/ImH5Y330Wr
u0K0mcwiSWbQCkA4WcVwI5+nSX1NiGjtjgU3/y1kRpXHQe+V7vLShzUQ0fDLyq7I
X2yChVYkdYic/4UIe3TK4KmUXdgw3A9UciurJso=
-----END CERTIFICATE-----
