Certificate:
    Data:
        Version: 3 (0x2)
        Serial Number: 268435664 (0x100000d0)
    Signature Algorithm: sha256WithRSAEncryption
        Issuer: C=DE, ST=Hessen, O=privacyidea, CN=CA001
        Validity
            Not Before: Mar  1 14:33:12 2017 GMT
            Not After : Mar  1 14:33:12 2018 GMT
        Subject: C=DE, ST=Hessen, O=privacyidea, CN=requester.localdomain
        Subject Public Key Info:
            Public Key Algorithm: rsaEncryption
                Public-Key: (2048 bit)
                Modulus:
                    00:cd:be:14:4f:fa:ce:01:3f:42:22:1b:1d:9c:af:
                    dd:92:d2:7f:db:6c:b7:3e:39:43:43:6b:13:03:f1:
                    05:f4:07:74:bc:76:69:28:0b:af:19:8e:d7:fc:e3:
                    cd:c6:58:f2:ca:7f:08:6d:53:fc:07:02:44:24:c6:
                    b4:34:4c:8c:04:fe:33:0e:40:e2:20:ba:02:73:5a:
                    f7:f5:4f:63:6e:cc:c6:b6:df:54:1d:37:39:7d:51:
                    36:26:5f:bd:dc:3f:a8:8b:6b:a2:ae:b6:9d:d6:21:
                    e7:df:41:b8:7a:28:2a:68:48:ca:a8:2d:ed:e1:e9:
                    46:5e:5a:72:6d:b4:84:38:87:91:fd:94:11:0b:28:
                    84:c6:c2:2f:2a:fb:01:f9:36:7a:09:75:d1:33:88:
                    3c:73:41:5b:c8:bf:94:89:70:a1:f0:c0:b9:2e:50:
                    53:1e:b1:17:64:69:f4:2d:81:e0:a9:0d:0e:32:e9:
                    ba:55:8a:85:f1:1b:6f:49:79:b4:7f:88:c3:0d:3e:
                    54:88:9b:3d:1f:38:8c:04:f3:ee:6a:63:2b:f5:c6:
                    db:b4:83:aa:c4:78:41:3a:7d:4b:e1:c8:3e:71:ca:
                    1b:61:59:ea:c6:c4:ca:32:5e:c9:e9:bf:12:29:e6:
                    c6:c3:63:fe:a0:55:da:7a:f1:60:98:4d:26:ed:fa:
                    70:2d
                Exponent: 65537 (0x10001)
        X509v3 extensions:
            X509v3 Key Usage: 
                Digital Signature, Key Encipherment
            X509v3 Basic Constraints: 
                CA:FALSE
            Netscape Cert Type: 
                SSL Server
            Netscape Comment: 
                OpenSSL Generated Server Certificate
            X509v3 Subject Key Identifier: 
                53:3F:ED:5D:09:07:B3:65:7B:AB:45:C9:24:5B:09:77:80:0A:96:ED
            X509v3 Authority Key Identifier: 
                keyid:F4:A7:C0:CC:91:46:AF:64:F3:91:F2:27:F8:C8:B2:6F:8A:87:32:73
                DirName:/C=DE/ST=Hessen/O=privacyidea/CN=CA001
                serial:FB:C8:EB:AC:83:CD:12:07

            X509v3 Extended Key Usage: 
                TLS Web Server Authentication
    Signature Algorithm: sha256WithRSAEncryption
         6c:c3:b9:ce:e3:ea:86:71:5d:a7:ca:85:1a:35:b6:6d:b2:18:
         93:60:0e:f3:91:7f:c6:72:e6:86:11:e6:f8:92:fb:33:0a:26:
         1b:e0:68:0d:3c:19:d7:e1:44:74:c4:bf:e0:50:3c:a4:1a:50:
         07:d7:7f:3c:f4:2a:bd:b8:52:be:ce:27:09:d1:d8:7c:36:10:
         9b:8f:71:98:5d:b4:63:03:f0:b9:68:22:7d:e2:9b:d9:08:b4:
         72:26:e7:cf:bd:1f:18:56:59:cd:14:75:47:78:50:dd:0f:71:
         bb:8e:76:83:26:77:37:25:c1:c4:de:6c:4a:d0:d7:7d:13:1b:
         94:69:44:87:e8:41:7b:c7:60:00:6c:ed:cc:b7:d1:c1:92:12:
         10:3f:1c:9d:56:a5:a5:4d:c2:eb:94:74:f3:fb:07:8e:4c:4c:
         83:a8:90:13:78:74:cc:63:bc:7e:14:e9:b3:b8:76:9f:d3:2d:
         3c:c7:85:cf:2b:e8:e2:00:a9:86:ca:f7:da:9f:18:19:98:41:
         1e:65:5f:6c:bd:9b:3d:ba:ab:b4:51:86:4d:38:8c:d4:2b:ed:
         28:90:80:b3:18:57:44:46:09:c5:74:0f:8d:f5:78:ea:39:af:
         30:bd:3a:b2:a3:b9:1d:00:49:38:9f:e4:90:9e:bd:53:b1:f0:
         ca:7c:65:d9
-----BEGIN CERTIFICATE-----
MIIEJjCCAw6gAwIBAgIEEAAA0DANBgkqhkiG9w0BAQsFADBEMQswCQYDVQQGEwJE
RTEPMA0GA1UECAwGSGVzc2VuMRQwEgYDVQQKDAtwcml2YWN5aWRlYTEOMAwGA1UE
AwwFQ0EwMDEwHhcNMTcwMzAxMTQzMzEyWhcNMTgwMzAxMTQzMzEyWjBUMQswCQYD
VQQGEwJERTEPMA0GA1UECAwGSGVzc2VuMRQwEgYDVQQKDAtwcml2YWN5aWRlYTEe
MBwGA1UEAwwVcmVxdWVzdGVyLmxvY2FsZG9tYWluMIIBIjANBgkqhkiG9w0BAQEF
AAOCAQ8AMIIBCgKCAQEAzb4UT/rOAT9CIhsdnK/dktJ/22y3PjlDQ2sTA/EF9Ad0
vHZpKAuvGY7X/OPNxljyyn8IbVP8BwJEJMa0NEyMBP4zDkDiILoCc1r39U9jbszG
tt9UHTc5fVE2Jl+93D+oi2uirrad1iHn30G4eigqaEjKqC3t4elGXlpybbSEOIeR
/ZQRCyiExsIvKvsB+TZ6CXXRM4g8c0FbyL+UiXCh8MC5LlBTHrEXZGn0LYHgqQ0O
Mum6VYqF8RtvSXm0f4jDDT5UiJs9HziMBPPuamMr9cbbtIOqxHhBOn1L4cg+ccob
YVnqxsTKMl7J6b8SKebGw2P+oFXaevFgmE0m7fpwLQIDAQABo4IBDjCCAQowCwYD
VR0PBAQDAgWgMAkGA1UdEwQCMAAwEQYJYIZIAYb4QgEBBAQDAgZAMDMGCWCGSAGG
+EIBDQQmFiRPcGVuU1NMIEdlbmVyYXRlZCBTZXJ2ZXIgQ2VydGlmaWNhdGUwHQYD
VR0OBBYEFFM/7V0JB7Nle6tFySRbCXeACpbtMHQGA1UdIwRtMGuAFPSnwMyRRq9k
85HyJ/jIsm+KhzJzoUikRjBEMQswCQYDVQQGEwJERTEPMA0GA1UECAwGSGVzc2Vu
MRQwEgYDVQQKDAtwcml2YWN5aWRlYTEOMAwGA1UEAwwFQ0EwMDGCCQD7yOusg80S
BzATBgNVHSUEDDAKBggrBgEFBQcDATANBgkqhkiG9w0BAQsFAAOCAQEAbMO5zuPq
hnFdp8qFGjW2bbIYk2AO85F/xnLmhhHm+JL7MwomG+BoDTwZ1+FEdMS/4FA8pBpQ
B9d/PPQqvbhSvs4nCdHYfDYQm49xmF20YwPwuWgifeKb2Qi0cibnz70fGFZZzRR1
R3hQ3Q9xu452gyZ3NyXBxN5sStDXfRMblGlEh+hBe8dgAGztzLfRwZISED8cnVal
pU3C65R08/sHjkxMg6iQE3h0zGO8fhTps7h2n9MtPMeFzyvo4gCphsr32p8YGZhB
HmVfbL2bPbqrtFGGTTiM1CvtKJCAsxhXREYJxXQPjfV46jmvML06sqO5HQBJOJ/k
kJ69U7Hwynxl2Q==
-----END CERTIFICATE-----
