Certificate:
    Data:
        Version: 3 (0x2)
        Serial Number: 268435684 (0x100000e4)
    Signature Algorithm: sha1WithRSAEncryption
        Issuer: C=DE, ST=Hessen, O=privacyidea, CN=CA001
        Validity
            Not Before: Feb 23 15:24:29 2017 GMT
            Not After : Feb 23 15:24:29 2018 GMT
        Subject: CN=Steve Test/emailAddress=steve@openssl.org
        Subject Public Key Info:
            Public Key Algorithm: rsaEncryption
                Public-Key: (2048 bit)
                Modulus:
                    00:d2:81:89:20:51:48:0f:73:f4:11:32:24:d5:1f:
                    1c:fd:5c:f5:b6:e6:c5:f0:52:81:dc:d2:af:66:4a:
                    7c:93:31:61:5c:af:d1:6d:06:70:03:60:7c:72:0c:
                    88:dd:49:cd:9e:02:6c:d2:5a:d7:53:0f:f3:da:be:
                    69:64:b5:0f:0c:00:e3:b3:50:47:a3:b3:9b:ba:13:
                    50:d6:58:5a:4b:ab:39:e0:11:ca:0a:27:67:03:78:
                    22:66:6d:92:1e:1b:5c:49:ae:e6:6b:d1:8e:3b:9d:
                    06:d3:c6:ac:4d:53:43:10:ab:e8:96:c1:87:82:97:
                    99:8f:20:d3:99:12:37:31:84:e1:8a:ff:29:03:5f:
                    22:90:3e:7f:9b:e0:20:c1:ad:dc:ae:4c:39:1a:31:
                    96:17:02:8c:b2:d9:b4:0d:20:12:9b:7d:86:54:fd:
                    33:fd:c1:2a:62:46:f8:60:96:cf:6e:01:6f:22:df:
                    13:47:e7:97:ec:05:72:23:a3:62:f8:fa:ef:ac:9c:
                    72:f0:37:cb:2f:37:cf:90:a8:27:51:86:c6:d7:78:
                    08:8f:7e:25:a2:15:70:a2:fb:1c:b6:15:5e:a0:97:
                    8b:81:4c:09:28:8a:27:3b:94:bc:71:db:5b:71:37:
                    9a:2b:16:e0:6f:b5:c9:f5:4b:4f:20:ba:65:cf:af:
                    ad:ad
                Exponent: 65537 (0x10001)
        X509v3 extensions:
            X509v3 Key Usage: 
                Digital Signature, Key Encipherment
            X509v3 Basic Constraints: 
                CA:FALSE
            Netscape Cert Type: 
                SSL Server
            Netscape Comment: 
                OpenSSL Generated Server Certificate
            X509v3 Subject Key Identifier: 
                E5:25:6D:3E:AF:0D:DD:3F:4C:F2:45:19:39:D5:14:DB:7E:9C:C0:AD
            X509v3 Authority Key Identifier: 
                keyid:F4:A7:C0:CC:91:46:AF:64:F3:91:F2:27:F8:C8:B2:6F:8A:87:32:73
                DirName:/C=DE/ST=Hessen/O=privacyidea/CN=CA001
                serial:FB:C8:EB:AC:83:CD:12:07

            X509v3 Extended Key Usage: 
                TLS Web Server Authentication
    Signature Algorithm: sha1WithRSAEncryption
         73:72:e7:08:80:a3:19:c2:24:18:ff:ed:10:36:7b:89:7b:9a:
         eb:c1:ed:3b:74:02:0c:06:53:45:92:98:60:56:97:41:d7:fc:
         45:94:fd:9d:81:b7:59:2a:2e:c3:27:d0:f1:75:4f:91:39:43:
         5c:7c:8c:fb:af:a9:3e:ab:62:6d:21:0c:54:38:ec:91:d3:1b:
         a8:b4:67:89:5b:c3:d0:e9:d1:50:90:24:1a:19:73:3e:04:bc:
         11:b3:05:b6:ac:76:e1:3a:cc:0d:bc:7e:2d:c6:06:d9:0b:03:
         45:ef:47:a3:e1:47:25:65:f7:9e:df:2b:ca:27:0e:59:f5:4e:
         36:bf:85:ff:72:2e:a5:84:c1:bb:3d:80:05:d0:ca:e4:9a:f1:
         d9:7a:cc:a3:d5:21:80:e6:ef:5e:35:ab:66:b3:71:ca:62:21:
         61:25:51:0e:7b:d3:25:5a:37:8d:a5:83:40:70:5d:4d:e4:6d:
         fb:11:45:70:aa:0b:37:05:9c:bc:62:b1:9c:31:56:d2:b9:c5:
         a0:16:59:1a:8a:1c:5f:e8:46:b1:21:ca:9d:5a:a4:38:65:bb:
         32:71:35:67:ec:9d:7b:87:5e:71:5a:7a:93:8a:5b:23:5e:b5:
         c9:d6:5c:cb:8f:bf:63:6d:5c:f5:44:06:21:47:84:8d:18:2e:
         b5:32:ad:4c
-----BEGIN CERTIFICATE-----
MIIECTCCAvGgAwIBAgIEEAAA5DANBgkqhkiG9w0BAQUFADBEMQswCQYDVQQGEwJE
RTEPMA0GA1UECAwGSGVzc2VuMRQwEgYDVQQKDAtwcml2YWN5aWRlYTEOMAwGA1UE
AwwFQ0EwMDEwHhcNMTcwMjIzMTUyNDI5WhcNMTgwMjIzMTUyNDI5WjA3MRMwEQYD
VQQDDApTdGV2ZSBUZXN0MSAwHgYJKoZIhvcNAQkBFhFzdGV2ZUBvcGVuc3NsLm9y
ZzCCASIwDQYJKoZIhvcNAQEBBQADggEPADCCAQoCggEBANKBiSBRSA9z9BEyJNUf
HP1c9bbmxfBSgdzSr2ZKfJMxYVyv0W0GcANgfHIMiN1JzZ4CbNJa11MP89q+aWS1
DwwA47NQR6Ozm7oTUNZYWkurOeARygonZwN4ImZtkh4bXEmu5mvRjjudBtPGrE1T
QxCr6JbBh4KXmY8g05kSNzGE4Yr/KQNfIpA+f5vgIMGt3K5MORoxlhcCjLLZtA0g
Ept9hlT9M/3BKmJG+GCWz24BbyLfE0fnl+wFciOjYvj676yccvA3yy83z5CoJ1GG
xtd4CI9+JaIVcKL7HLYVXqCXi4FMCSiKJzuUvHHbW3E3misW4G+1yfVLTyC6Zc+v
ra0CAwEAAaOCAQ4wggEKMAsGA1UdDwQEAwIFoDAJBgNVHRMEAjAAMBEGCWCGSAGG
+EIBAQQEAwIGQDAzBglghkgBhvhCAQ0EJhYkT3BlblNTTCBHZW5lcmF0ZWQgU2Vy
dmVyIENlcnRpZmljYXRlMB0GA1UdDgQWBBTlJW0+rw3dP0zyRRk51RTbfpzArTB0
BgNVHSMEbTBrgBT0p8DMkUavZPOR8if4yLJviocyc6FIpEYwRDELMAkGA1UEBhMC
REUxDzANBgNVBAgMBkhlc3NlbjEUMBIGA1UECgwLcHJpdmFjeWlkZWExDjAMBgNV
BAMMBUNBMDAxggkA+8jrrIPNEgcwEwYDVR0lBAwwCgYIKwYBBQUHAwEwDQYJKoZI
hvcNAQEFBQADggEBAHNy5wiAoxnCJBj/7RA2e4l7muvB7Tt0AgwGU0WSmGBWl0HX
/EWU/Z2Bt1kqLsMn0PF1T5E5Q1x8jPuvqT6rYm0hDFQ47JHTG6i0Z4lbw9Dp0VCQ
JBoZcz4EvBGzBbasduE6zA28fi3GBtkLA0XvR6PhRyVl957fK8onDln1Tja/hf9y
LqWEwbs9gAXQyuSa8dl6zKPVIYDm7141q2azccpiIWElUQ570yVaN42lg0BwXU3k
bfsRRXCqCzcFnLxisZwxVtK5xaAWWRqKHF/oRrEhyp1apDhluzJxNWfsnXuHXnFa
epOKWyNetcnWXMuPv2NtXPVEBiFHhI0YLrUyrUw=
-----END CERTIFICATE-----
