Certificate:
    Data:
        Version: 3 (0x2)
        Serial Number: 268435670 (0x100000d6)
    Signature Algorithm: sha256WithRSAEncryption
        Issuer: C=DE, ST=Hessen, O=privacyidea, CN=CA001
        Validity
            Not Before: Mar  1 14:41:23 2017 GMT
            Not After : Mar  1 14:41:23 2018 GMT
        Subject: C=DE, ST=Hessen, O=privacyidea, CN=requester.localdomain
        Subject Public Key Info:
            Public Key Algorithm: rsaEncryption
                Public-Key: (2048 bit)
                Modulus:
                    00:cd:be:14:4f:fa:ce:01:3f:42:22:1b:1d:9c:af:
                    dd:92:d2:7f:db:6c:b7:3e:39:43:43:6b:13:03:f1:
                    05:f4:07:74:bc:76:69:28:0b:af:19:8e:d7:fc:e3:
                    cd:c6:58:f2:ca:7f:08:6d:53:fc:07:02:44:24:c6:
                    b4:34:4c:8c:04:fe:33:0e:40:e2:20:ba:02:73:5a:
                    f7:f5:4f:63:6e:cc:c6:b6:df:54:1d:37:39:7d:51:
                    36:26:5f:bd:dc:3f:a8:8b:6b:a2:ae:b6:9d:d6:21:
                    e7:df:41:b8:7a:28:2a:68:48:ca:a8:2d:ed:e1:e9:
                    46:5e:5a:72:6d:b4:84:38:87:91:fd:94:11:0b:28:
                    84:c6:c2:2f:2a:fb:01:f9:36:7a:09:75:d1:33:88:
                    3c:73:41:5b:c8:bf:94:89:70:a1:f0:c0:b9:2e:50:
                    53:1e:b1:17:64:69:f4:2d:81:e0:a9:0d:0e:32:e9:
                    ba:55:8a:85:f1:1b:6f:49:79:b4:7f:88:c3:0d:3e:
                    54:88:9b:3d:1f:38:8c:04:f3:ee:6a:63:2b:f5:c6:
                    db:b4:83:aa:c4:78:41:3a:7d:4b:e1:c8:3e:71:ca:
                    1b:61:59:ea:c6:c4:ca:32:5e:c9:e9:bf:12:29:e6:
                    c6:c3:63:fe:a0:55:da:7a:f1:60:98:4d:26:ed:fa:
                    70:2d
                Exponent: 65537 (0x10001)
        X509v3 extensions:
            X509v3 Key Usage: 
                Digital Signature, Key Encipherment
            X509v3 Basic Constraints: 
                CA:FALSE
            Netscape Cert Type: 
                SSL Server
            Netscape Comment: 
                OpenSSL Generated Server Certificate
            X509v3 Subject Key Identifier: 
                53:3F:ED:5D:09:07:B3:65:7B:AB:45:C9:24:5B:09:77:80:0A:96:ED
            X509v3 Authority Key Identifier: 
                keyid:F4:A7:C0:CC:91:46:AF:64:F3:91:F2:27:F8:C8:B2:6F:8A:87:32:73
                DirName:/C=DE/ST=Hessen/O=privacyidea/CN=CA001
                serial:FB:C8:EB:AC:83:CD:12:07

            X509v3 Extended Key Usage: 
                TLS Web Server Authentication
    Signature Algorithm: sha256WithRSAEncryption
         ae:19:b2:2a:68:87:45:2b:32:d5:5a:45:c6:b2:8b:5a:a8:e9:
         d8:a6:27:7f:89:fb:92:13:b8:b8:80:61:fa:f7:00:6b:2a:b4:
         0f:13:20:30:6d:03:96:72:1b:3e:24:20:14:6b:31:8f:4d:97:
         aa:70:8a:c7:5b:d3:a8:d2:0b:40:50:76:e8:30:54:a7:08:71:
         b0:59:a0:24:d5:60:55:65:40:0d:4d:b9:0c:76:5c:b2:eb:e3:
         7a:24:15:22:11:0d:f4:fb:23:a9:c0:8e:e4:1d:73:68:59:cc:
         6f:5e:b7:4a:b9:06:04:62:e8:71:eb:15:60:d6:8e:88:5c:34:
         7c:d2:bf:26:5e:0f:5b:6b:4e:09:75:03:01:16:07:0e:96:40:
         68:ee:2a:12:e1:87:0f:59:a8:ea:27:05:e4:92:58:df:41:ea:
         b0:b5:d9:68:f5:6b:14:55:1e:fb:30:a3:dd:b3:c9:01:51:e0:
         0d:06:fc:d5:23:1a:4d:65:2c:7b:b4:db:99:df:d7:a0:7d:d7:
         88:d9:35:21:c1:41:63:8d:dc:60:ed:c1:db:9a:8d:e5:50:8a:
         7a:82:43:b5:16:41:74:23:5c:b1:fc:dd:b3:2d:ce:d6:35:69:
         40:a8:54:5a:ba:76:c3:1d:a7:e3:0c:29:44:94:9a:17:a3:a1:
         1f:4f:c9:33
-----BEGIN CERTIFICATE-----
MIIEJjCCAw6gAwIBAgIEEAAA1jANBgkqhkiG9w0BAQsFADBEMQswCQYDVQQGEwJE
RTEPMA0GA1UECAwGSGVzc2VuMRQwEgYDVQQKDAtwcml2YWN5aWRlYTEOMAwGA1UE
AwwFQ0EwMDEwHhcNMTcwMzAxMTQ0MTIzWhcNMTgwMzAxMTQ0MTIzWjBUMQswCQYD
VQQGEwJERTEPMA0GA1UECAwGSGVzc2VuMRQwEgYDVQQKDAtwcml2YWN5aWRlYTEe
MBwGA1UEAwwVcmVxdWVzdGVyLmxvY2FsZG9tYWluMIIBIjANBgkqhkiG9w0BAQEF
AAOCAQ8AMIIBCgKCAQEAzb4UT/rOAT9CIhsdnK/dktJ/22y3PjlDQ2sTA/EF9Ad0
vHZpKAuvGY7X/OPNxljyyn8IbVP8BwJEJMa0NEyMBP4zDkDiILoCc1r39U9jbszG
tt9UHTc5fVE2Jl+93D+oi2uirrad1iHn30G4eigqaEjKqC3t4elGXlpybbSEOIeR
/ZQRCyiExsIvKvsB+TZ6CXXRM4g8c0FbyL+UiXCh8MC5LlBTHrEXZGn0LYHgqQ0O
Mum6VYqF8RtvSXm0f4jDDT5UiJs9HziMBPPuamMr9cbbtIOqxHhBOn1L4cg+ccob
YVnqxsTKMl7J6b8SKebGw2P+oFXaevFgmE0m7fpwLQIDAQABo4IBDjCCAQowCwYD
VR0PBAQDAgWgMAkGA1UdEwQCMAAwEQYJYIZIAYb4QgEBBAQDAgZAMDMGCWCGSAGG
+EIBDQQmFiRPcGVuU1NMIEdlbmVyYXRlZCBTZXJ2ZXIgQ2VydGlmaWNhdGUwHQYD
VR0OBBYEFFM/7V0JB7Nle6tFySRbCXeACpbtMHQGA1UdIwRtMGuAFPSnwMyRRq9k
85HyJ/jIsm+KhzJzoUikRjBEMQswCQYDVQQGEwJERTEPMA0GA1UECAwGSGVzc2Vu
MRQwEgYDVQQKDAtwcml2YWN5aWRlYTEOMAwGA1UEAwwFQ0EwMDGCCQD7yOusg80S
BzATBgNVHSUEDDAKBggrBgEFBQcDATANBgkqhkiG9w0BAQsFAAOCAQEArhmyKmiH
RSsy1VpFxrKLWqjp2KYnf4n7khO4uIBh+vcAayq0DxMgMG0DlnIbPiQgFGsxj02X
qnCKx1vTqNILQFB26DBUpwhxsFmgJNVgVWVADU25DHZcsuvjeiQVIhEN9PsjqcCO
5B1zaFnMb163SrkGBGLocesVYNaOiFw0fNK/Jl4PW2tOCXUDARYHDpZAaO4qEuGH
D1mo6icF5JJY30HqsLXZaPVrFFUe+zCj3bPJAVHgDQb81SMaTWUse7Tbmd/XoH3X
iNk1IcFBY43cYO3B25qN5VCKeoJDtRZBdCNcsfzdsy3O1jVpQKhUWrp2wx2n4wwp
RJSaF6OhH0/JMw==
-----END CERTIFICATE-----
