Certificate:
    Data:
        Version: 3 (0x2)
        Serial Number: 268435677 (0x100000dd)
    Signature Algorithm: sha256WithRSAEncryption
        Issuer: C=DE, ST=Hessen, O=privacyidea, CN=CA001
        Validity
            Not Before: Feb 25 00:44:23 2017 GMT
            Not After : Feb 25 00:44:23 2018 GMT
        Subject: CN=Steve Test/emailAddress=steve@openssl.org
        Subject Public Key Info:
            Public Key Algorithm: rsaEncryption
                Public-Key: (2048 bit)
                Modulus:
                    00:d2:81:89:20:51:48:0f:73:f4:11:32:24:d5:1f:
                    1c:fd:5c:f5:b6:e6:c5:f0:52:81:dc:d2:af:66:4a:
                    7c:93:31:61:5c:af:d1:6d:06:70:03:60:7c:72:0c:
                    88:dd:49:cd:9e:02:6c:d2:5a:d7:53:0f:f3:da:be:
                    69:64:b5:0f:0c:00:e3:b3:50:47:a3:b3:9b:ba:13:
                    50:d6:58:5a:4b:ab:39:e0:11:ca:0a:27:67:03:78:
                    22:66:6d:92:1e:1b:5c:49:ae:e6:6b:d1:8e:3b:9d:
                    06:d3:c6:ac:4d:53:43:10:ab:e8:96:c1:87:82:97:
                    99:8f:20:d3:99:12:37:31:84:e1:8a:ff:29:03:5f:
                    22:90:3e:7f:9b:e0:20:c1:ad:dc:ae:4c:39:1a:31:
                    96:17:02:8c:b2:d9:b4:0d:20:12:9b:7d:86:54:fd:
                    33:fd:c1:2a:62:46:f8:60:96:cf:6e:01:6f:22:df:
                    13:47:e7:97:ec:05:72:23:a3:62:f8:fa:ef:ac:9c:
                    72:f0:37:cb:2f:37:cf:90:a8:27:51:86:c6:d7:78:
                    08:8f:7e:25:a2:15:70:a2:fb:1c:b6:15:5e:a0:97:
                    8b:81:4c:09:28:8a:27:3b:94:bc:71:db:5b:71:37:
                    9a:2b:16:e0:6f:b5:c9:f5:4b:4f:20:ba:65:cf:af:
                    ad:ad
                Exponent: 65537 (0x10001)
        X509v3 extensions:
            X509v3 Key Usage: 
                Digital Signature, Key Encipherment
            X509v3 Basic Constraints: 
                CA:FALSE
            Netscape Cert Type: 
                SSL Server
            Netscape Comment: 
                OpenSSL Generated Server Certificate
            X509v3 Subject Key Identifier: 
                E5:25:6D:3E:AF:0D:DD:3F:4C:F2:45:19:39:D5:14:DB:7E:9C:C0:AD
            X509v3 Authority Key Identifier: 
                keyid:F4:A7:C0:CC:91:46:AF:64:F3:91:F2:27:F8:C8:B2:6F:8A:87:32:73
                DirName:/C=DE/ST=Hessen/O=privacyidea/CN=CA001
                serial:FB:C8:EB:AC:83:CD:12:07

            X509v3 Extended Key Usage: 
                TLS Web Server Authentication
    Signature Algorithm: sha256WithRSAEncryption
         93:2d:7b:e1:69:37:50:a5:83:c1:f8:f7:a3:7c:f1:a2:8b:81:
         0b:f0:d1:c5:56:4c:55:1b:61:79:4f:5e:da:17:4f:c4:d2:bf:
         f6:5f:18:b7:b8:99:61:e9:b0:ed:df:ea:54:e6:55:6b:7d:ce:
         61:88:f8:1e:f4:91:6f:1e:f1:c7:23:9a:b0:b9:31:8c:fe:5f:
         03:eb:47:5d:68:a7:6f:8b:c5:96:1a:95:7e:8b:51:dd:fa:21:
         85:46:0f:d5:be:22:1a:a7:71:1c:56:d6:0a:66:c4:60:e0:d5:
         cf:0d:d3:da:63:8f:82:16:91:14:a8:de:e7:e6:c3:31:e6:49:
         77:96:5c:b1:00:0f:14:88:c6:88:6e:7e:eb:44:9c:3b:0b:f9:
         44:87:d4:2e:5d:ca:d0:12:c1:93:1c:8f:5b:22:ef:70:0b:2e:
         85:a2:10:89:ce:58:b4:ef:7c:a7:2f:f9:4b:48:49:93:68:36:
         89:c8:ed:1c:70:f6:9c:8d:cd:09:8e:b2:ee:c2:ad:75:c1:99:
         40:7b:2a:4d:cd:f0:04:92:71:dd:07:ba:36:1e:3f:34:94:ba:
         2e:05:0f:ee:41:18:c7:9a:14:2c:99:7a:61:c5:28:3e:c0:3c:
         c5:cf:ce:7d:50:25:8f:37:06:bc:2e:b4:5c:76:c7:41:a5:78:
         1f:a0:ef:e5
-----BEGIN CERTIFICATE-----
MIIECTCCAvGgAwIBAgIEEAAA3TANBgkqhkiG9w0BAQsFADBEMQswCQYDVQQGEwJE
RTEPMA0GA1UECAwGSGVzc2VuMRQwEgYDVQQKDAtwcml2YWN5aWRlYTEOMAwGA1UE
AwwFQ0EwMDEwHhcNMTcwMjI1MDA0NDIzWhcNMTgwMjI1MDA0NDIzWjA3MRMwEQYD
VQQDDApTdGV2ZSBUZXN0MSAwHgYJKoZIhvcNAQkBFhFzdGV2ZUBvcGVuc3NsLm9y
ZzCCASIwDQYJKoZIhvcNAQEBBQADggEPADCCAQoCggEBANKBiSBRSA9z9BEyJNUf
HP1c9bbmxfBSgdzSr2ZKfJMxYVyv0W0GcANgfHIMiN1JzZ4CbNJa11MP89q+aWS1
DwwA47NQR6Ozm7oTUNZYWkurOeARygonZwN4ImZtkh4bXEmu5mvRjjudBtPGrE1T
QxCr6JbBh4KXmY8g05kSNzGE4Yr/KQNfIpA+f5vgIMGt3K5MORoxlhcCjLLZtA0g
Ept9hlT9M/3BKmJG+GCWz24BbyLfE0fnl+wFciOjYvj676yccvA3yy83z5CoJ1GG
xtd4CI9+JaIVcKL7HLYVXqCXi4FMCSiKJzuUvHHbW3E3misW4G+1yfVLTyC6Zc+v
ra0CAwEAAaOCAQ4wggEKMAsGA1UdDwQEAwIFoDAJBgNVHRMEAjAAMBEGCWCGSAGG
+EIBAQQEAwIGQDAzBglghkgBhvhCAQ0EJhYkT3BlblNTTCBHZW5lcmF0ZWQgU2Vy
dmVyIENlcnRpZmljYXRlMB0GA1UdDgQWBBTlJW0+rw3dP0zyRRk51RTbfpzArTB0
BgNVHSMEbTBrgBT0p8DMkUavZPOR8if4yLJviocyc6FIpEYwRDELMAkGA1UEBhMC
REUxDzANBgNVBAgMBkhlc3NlbjEUMBIGA1UECgwLcHJpdmFjeWlkZWExDjAMBgNV
BAMMBUNBMDAxggkA+8jrrIPNEgcwEwYDVR0lBAwwCgYIKwYBBQUHAwEwDQYJKoZI
hvcNAQELBQADggEBAJMte+FpN1Clg8H496N88aKLgQvw0cVWTFUbYXlPXtoXT8TS
v/ZfGLe4mWHpsO3f6lTmVWt9zmGI+B70kW8e8ccjmrC5MYz+XwPrR11op2+LxZYa
lX6LUd36IYVGD9W+IhqncRxW1gpmxGDg1c8N09pjj4IWkRSo3ufmwzHmSXeWXLEA
DxSIxohufutEnDsL+USH1C5dytASwZMcj1si73ALLoWiEInOWLTvfKcv+UtISZNo
NonI7Rxw9pyNzQmOsu7CrXXBmUB7Kk3N8ASScd0HujYePzSUui4FD+5BGMeaFCyZ
emHFKD7APMXPzn1QJY83BrwutFx2x0GleB+g7+U=
-----END CERTIFICATE-----
