Certificate:
    Data:
        Version: 3 (0x2)
        Serial Number: 268435669 (0x100000d5)
    Signature Algorithm: sha256WithRSAEncryption
        Issuer: C=DE, ST=Hessen, O=privacyidea, CN=CA001
        Validity
            Not Before: Mar  1 14:39:48 2017 GMT
            Not After : Mar  1 14:39:48 2018 GMT
        Subject: C=DE, ST=Hessen, O=privacyidea, CN=requester.localdomain
        Subject Public Key Info:
            Public Key Algorithm: rsaEncryption
                Public-Key: (2048 bit)
                Modulus:
                    00:cd:be:14:4f:fa:ce:01:3f:42:22:1b:1d:9c:af:
                    dd:92:d2:7f:db:6c:b7:3e:39:43:43:6b:13:03:f1:
                    05:f4:07:74:bc:76:69:28:0b:af:19:8e:d7:fc:e3:
                    cd:c6:58:f2:ca:7f:08:6d:53:fc:07:02:44:24:c6:
                    b4:34:4c:8c:04:fe:33:0e:40:e2:20:ba:02:73:5a:
                    f7:f5:4f:63:6e:cc:c6:b6:df:54:1d:37:39:7d:51:
                    36:26:5f:bd:dc:3f:a8:8b:6b:a2:ae:b6:9d:d6:21:
                    e7:df:41:b8:7a:28:2a:68:48:ca:a8:2d:ed:e1:e9:
                    46:5e:5a:72:6d:b4:84:38:87:91:fd:94:11:0b:28:
                    84:c6:c2:2f:2a:fb:01:f9:36:7a:09:75:d1:33:88:
                    3c:73:41:5b:c8:bf:94:89:70:a1:f0:c0:b9:2e:50:
                    53:1e:b1:17:64:69:f4:2d:81:e0:a9:0d:0e:32:e9:
                    ba:55:8a:85:f1:1b:6f:49:79:b4:7f:88:c3:0d:3e:
                    54:88:9b:3d:1f:38:8c:04:f3:ee:6a:63:2b:f5:c6:
                    db:b4:83:aa:c4:78:41:3a:7d:4b:e1:c8:3e:71:ca:
                    1b:61:59:ea:c6:c4:ca:32:5e:c9:e9:bf:12:29:e6:
                    c6:c3:63:fe:a0:55:da:7a:f1:60:98:4d:26:ed:fa:
                    70:2d
                Exponent: 65537 (0x10001)
        X509v3 extensions:
            X509v3 Key Usage: 
                Digital Signature, Key Encipherment
            X509v3 Basic Constraints: 
                CA:FALSE
            Netscape Cert Type: 
                SSL Server
            Netscape Comment: 
                OpenSSL Generated Server Certificate
            X509v3 Subject Key Identifier: 
                53:3F:ED:5D:09:07:B3:65:7B:AB:45:C9:24:5B:09:77:80:0A:96:ED
            X509v3 Authority Key Identifier: 
                keyid:F4:A7:C0:CC:91:46:AF:64:F3:91:F2:27:F8:C8:B2:6F:8A:87:32:73
                DirName:/C=DE/ST=Hessen/O=privacyidea/CN=CA001
                serial:FB:C8:EB:AC:83:CD:12:07

            X509v3 Extended Key Usage: 
                TLS Web Server Authentication
    Signature Algorithm: sha256WithRSAEncryption
         57:56:86:23:66:fd:b5:9f:bd:23:55:72:50:00:91:67:ef:93:
         11:8e:b4:ab:ee:8c:0c:c9:56:16:3e:47:9b:cc:79:2d:0b:c4:
         cd:77:67:9c:0b:7e:8d:55:c6:99:c2:d9:2e:1f:6f:d3:2e:57:
         3d:a3:6b:0f:b3:9d:be:28:0c:ea:70:a0:6c:b3:94:9a:da:3e:
         42:15:e9:7d:ad:9c:2f:d6:75:24:86:a8:62:af:ab:3c:cf:b6:
         5c:b0:40:d3:9f:c3:a5:1a:06:e0:e6:6f:f2:f9:cb:7b:7b:16:
         da:8f:24:97:56:65:a0:11:f8:75:f2:e7:60:fd:59:3c:a5:16:
         09:c2:28:cd:c7:fe:77:16:80:55:77:0d:76:78:e6:b3:af:7d:
         ee:89:72:b9:82:c7:18:8c:8a:ee:57:0d:5a:c9:ef:2c:25:30:
         dd:ab:7a:d3:bb:19:a9:88:0c:a6:1c:6f:73:39:7b:0e:c7:10:
         a5:4d:43:ce:8b:e3:d2:a0:a1:2f:60:a2:dc:8d:18:39:5e:db:
         23:db:80:a9:60:a5:97:f8:51:6f:f3:ae:3e:78:6e:f5:68:91:
         2a:a9:ce:2d:04:e7:60:ce:db:4d:d1:41:f4:88:12:8f:e9:b2:
         53:7a:e8:0b:db:a7:e1:50:49:9c:82:5b:0c:c4:70:ef:05:14:
         ec:d6:11:8f
-----BEGIN CERTIFICATE-----
MIIEJjCCAw6gAwIBAgIEEAAA1TANBgkqhkiG9w0BAQsFADBEMQswCQYDVQQGEwJE
RTEPMA0GA1UECAwGSGVzc2VuMRQwEgYDVQQKDAtwcml2YWN5aWRlYTEOMAwGA1UE
AwwFQ0EwMDEwHhcNMTcwMzAxMTQzOTQ4WhcNMTgwMzAxMTQzOTQ4WjBUMQswCQYD
VQQGEwJERTEPMA0GA1UECAwGSGVzc2VuMRQwEgYDVQQKDAtwcml2YWN5aWRlYTEe
MBwGA1UEAwwVcmVxdWVzdGVyLmxvY2FsZG9tYWluMIIBIjANBgkqhkiG9w0BAQEF
AAOCAQ8AMIIBCgKCAQEAzb4UT/rOAT9CIhsdnK/dktJ/22y3PjlDQ2sTA/EF9Ad0
vHZpKAuvGY7X/OPNxljyyn8IbVP8BwJEJMa0NEyMBP4zDkDiILoCc1r39U9jbszG
tt9UHTc5fVE2Jl+93D+oi2uirrad1iHn30G4eigqaEjKqC3t4elGXlpybbSEOIeR
/ZQRCyiExsIvKvsB+TZ6CXXRM4g8c0FbyL+UiXCh8MC5LlBTHrEXZGn0LYHgqQ0O
Mum6VYqF8RtvSXm0f4jDDT5UiJs9HziMBPPuamMr9cbbtIOqxHhBOn1L4cg+ccob
YVnqxsTKMl7J6b8SKebGw2P+oFXaevFgmE0m7fpwLQIDAQABo4IBDjCCAQowCwYD
VR0PBAQDAgWgMAkGA1UdEwQCMAAwEQYJYIZIAYb4QgEBBAQDAgZAMDMGCWCGSAGG
+EIBDQQmFiRPcGVuU1NMIEdlbmVyYXRlZCBTZXJ2ZXIgQ2VydGlmaWNhdGUwHQYD
VR0OBBYEFFM/7V0JB7Nle6tFySRbCXeACpbtMHQGA1UdIwRtMGuAFPSnwMyRRq9k
85HyJ/jIsm+KhzJzoUikRjBEMQswCQYDVQQGEwJERTEPMA0GA1UECAwGSGVzc2Vu
MRQwEgYDVQQKDAtwcml2YWN5aWRlYTEOMAwGA1UEAwwFQ0EwMDGCCQD7yOusg80S
BzATBgNVHSUEDDAKBggrBgEFBQcDATANBgkqhkiG9w0BAQsFAAOCAQEAV1aGI2b9
tZ+9I1VyUACRZ++TEY60q+6MDMlWFj5Hm8x5LQvEzXdnnAt+jVXGmcLZLh9v0y5X
PaNrD7OdvigM6nCgbLOUmto+QhXpfa2cL9Z1JIaoYq+rPM+2XLBA05/DpRoG4OZv
8vnLe3sW2o8kl1ZloBH4dfLnYP1ZPKUWCcIozcf+dxaAVXcNdnjms6997olyuYLH
GIyK7lcNWsnvLCUw3at607sZqYgMphxvczl7DscQpU1Dzovj0qChL2Ci3I0YOV7b
I9uAqWCll/hRb/OuPnhu9WiRKqnOLQTnYM7bTdFB9IgSj+myU3roC9un4VBJnIJb
DMRw7wUU7NYRjw==
-----END CERTIFICATE-----
