Certificate:
    Data:
        Version: 3 (0x2)
        Serial Number: 268435667 (0x100000d3)
    Signature Algorithm: sha256WithRSAEncryption
        Issuer: C=DE, ST=Hessen, O=privacyidea, CN=CA001
        Validity
            Not Before: Mar  1 14:34:42 2017 GMT
            Not After : Mar  1 14:34:42 2018 GMT
        Subject: CN=Steve Test/emailAddress=steve@openssl.org
        Subject Public Key Info:
            Public Key Algorithm: rsaEncryption
                Public-Key: (2048 bit)
                Modulus:
                    00:d2:81:89:20:51:48:0f:73:f4:11:32:24:d5:1f:
                    1c:fd:5c:f5:b6:e6:c5:f0:52:81:dc:d2:af:66:4a:
                    7c:93:31:61:5c:af:d1:6d:06:70:03:60:7c:72:0c:
                    88:dd:49:cd:9e:02:6c:d2:5a:d7:53:0f:f3:da:be:
                    69:64:b5:0f:0c:00:e3:b3:50:47:a3:b3:9b:ba:13:
                    50:d6:58:5a:4b:ab:39:e0:11:ca:0a:27:67:03:78:
                    22:66:6d:92:1e:1b:5c:49:ae:e6:6b:d1:8e:3b:9d:
                    06:d3:c6:ac:4d:53:43:10:ab:e8:96:c1:87:82:97:
                    99:8f:20:d3:99:12:37:31:84:e1:8a:ff:29:03:5f:
                    22:90:3e:7f:9b:e0:20:c1:ad:dc:ae:4c:39:1a:31:
                    96:17:02:8c:b2:d9:b4:0d:20:12:9b:7d:86:54:fd:
                    33:fd:c1:2a:62:46:f8:60:96:cf:6e:01:6f:22:df:
                    13:47:e7:97:ec:05:72:23:a3:62:f8:fa:ef:ac:9c:
                    72:f0:37:cb:2f:37:cf:90:a8:27:51:86:c6:d7:78:
                    08:8f:7e:25:a2:15:70:a2:fb:1c:b6:15:5e:a0:97:
                    8b:81:4c:09:28:8a:27:3b:94:bc:71:db:5b:71:37:
                    9a:2b:16:e0:6f:b5:c9:f5:4b:4f:20:ba:65:cf:af:
                    ad:ad
                Exponent: 65537 (0x10001)
        X509v3 extensions:
            X509v3 Key Usage: 
                Digital Signature, Key Encipherment
            X509v3 Basic Constraints: 
                CA:FALSE
            Netscape Cert Type: 
                SSL Server
            Netscape Comment: 
                OpenSSL Generated Server Certificate
            X509v3 Subject Key Identifier: 
                E5:25:6D:3E:AF:0D:DD:3F:4C:F2:45:19:39:D5:14:DB:7E:9C:C0:AD
            X509v3 Authority Key Identifier: 
                keyid:F4:A7:C0:CC:91:46:AF:64:F3:91:F2:27:F8:C8:B2:6F:8A:87:32:73
                DirName:/C=DE/ST=Hessen/O=privacyidea/CN=CA001
                serial:FB:C8:EB:AC:83:CD:12:07

            X509v3 Extended Key Usage: 
                TLS Web Server Authentication
    Signature Algorithm: sha256WithRSAEncryption
         92:71:0d:04:1f:56:71:16:cd:dd:d6:a9:bb:bd:a4:0d:b2:e4:
         ad:84:50:6b:98:0d:38:e1:f7:d0:b9:b5:a1:9f:95:59:ff:d8:
         63:9b:03:6f:f2:6c:d4:ef:56:c8:10:03:b4:e3:f7:0a:59:5c:
         0f:73:d4:ae:47:d9:1b:fb:fe:15:50:14:b5:c9:2d:de:5d:bd:
         f4:6b:02:66:57:bc:62:dc:4f:e6:e0:82:04:70:68:03:ad:e1:
         a2:d2:18:0a:83:6a:da:46:14:73:f2:c1:fc:9d:f0:91:62:57:
         c5:a6:81:dd:e9:ec:67:1d:72:f3:ac:1b:40:ce:32:3b:99:7d:
         bd:cf:81:2f:55:cd:3c:e7:a7:bf:47:52:0c:5d:29:2b:00:a5:
         bc:f0:ef:37:5a:3d:6e:cf:9d:2e:dd:b9:b4:72:fc:5a:7b:01:
         bf:7b:50:aa:ae:4b:36:69:fb:50:c2:1c:50:40:80:2c:47:72:
         65:6b:e7:1e:b5:5d:84:15:b1:1a:69:c0:23:b3:86:ef:93:db:
         53:ce:cd:ab:cd:0f:e1:bb:2d:c8:56:1b:21:18:02:11:68:7d:
         7e:39:57:c4:7e:05:31:8b:db:54:79:bf:86:2f:c7:4f:b4:18:
         d7:1f:99:aa:23:47:91:a9:a1:2f:78:66:19:75:c2:2c:39:a9:
         bc:fe:6a:62
-----BEGIN CERTIFICATE-----
MIIECTCCAvGgAwIBAgIEEAAA0zANBgkqhkiG9w0BAQsFADBEMQswCQYDVQQGEwJE
RTEPMA0GA1UECAwGSGVzc2VuMRQwEgYDVQQKDAtwcml2YWN5aWRlYTEOMAwGA1UE
AwwFQ0EwMDEwHhcNMTcwMzAxMTQzNDQyWhcNMTgwMzAxMTQzNDQyWjA3MRMwEQYD
VQQDDApTdGV2ZSBUZXN0MSAwHgYJKoZIhvcNAQkBFhFzdGV2ZUBvcGVuc3NsLm9y
ZzCCASIwDQYJKoZIhvcNAQEBBQADggEPADCCAQoCggEBANKBiSBRSA9z9BEyJNUf
HP1c9bbmxfBSgdzSr2ZKfJMxYVyv0W0GcANgfHIMiN1JzZ4CbNJa11MP89q+aWS1
DwwA47NQR6Ozm7oTUNZYWkurOeARygonZwN4ImZtkh4bXEmu5mvRjjudBtPGrE1T
QxCr6JbBh4KXmY8g05kSNzGE4Yr/KQNfIpA+f5vgIMGt3K5MORoxlhcCjLLZtA0g
Ept9hlT9M/3BKmJG+GCWz24BbyLfE0fnl+wFciOjYvj676yccvA3yy83z5CoJ1GG
xtd4CI9+JaIVcKL7HLYVXqCXi4FMCSiKJzuUvHHbW3E3misW4G+1yfVLTyC6Zc+v
ra0CAwEAAaOCAQ4wggEKMAsGA1UdDwQEAwIFoDAJBgNVHRMEAjAAMBEGCWCGSAGG
+EIBAQQEAwIGQDAzBglghkgBhvhCAQ0EJhYkT3BlblNTTCBHZW5lcmF0ZWQgU2Vy
dmVyIENlcnRpZmljYXRlMB0GA1UdDgQWBBTlJW0+rw3dP0zyRRk51RTbfpzArTB0
BgNVHSMEbTBrgBT0p8DMkUavZPOR8if4yLJviocyc6FIpEYwRDELMAkGA1UEBhMC
REUxDzANBgNVBAgMBkhlc3NlbjEUMBIGA1UECgwLcHJpdmFjeWlkZWExDjAMBgNV
BAMMBUNBMDAxggkA+8jrrIPNEgcwEwYDVR0lBAwwCgYIKwYBBQUHAwEwDQYJKoZI
hvcNAQELBQADggEBAJJxDQQfVnEWzd3Wqbu9pA2y5K2EUGuYDTjh99C5taGflVn/
2GObA2/ybNTvVsgQA7Tj9wpZXA9z1K5H2Rv7/hVQFLXJLd5dvfRrAmZXvGLcT+bg
ggRwaAOt4aLSGAqDatpGFHPywfyd8JFiV8Wmgd3p7GcdcvOsG0DOMjuZfb3PgS9V
zTznp79HUgxdKSsApbzw7zdaPW7PnS7dubRy/Fp7Ab97UKquSzZp+1DCHFBAgCxH
cmVr5x61XYQVsRppwCOzhu+T21POzavND+G7LchWGyEYAhFofX45V8R+BTGL21R5
v4Yvx0+0GNcfmaojR5GpoS94Zhl1wiw5qbz+amI=
-----END CERTIFICATE-----
