Certificate:
    Data:
        Version: 3 (0x2)
        Serial Number: 268435666 (0x100000d2)
    Signature Algorithm: sha256WithRSAEncryption
        Issuer: C=DE, ST=Hessen, O=privacyidea, CN=CA001
        Validity
            Not Before: Mar  1 14:34:42 2017 GMT
            Not After : Mar  1 14:34:42 2018 GMT
        Subject: C=DE, ST=Hessen, O=privacyidea, CN=usercert
        Subject Public Key Info:
            Public Key Algorithm: rsaEncryption
                Public-Key: (2048 bit)
                Modulus:
                    00:dc:2f:d1:5f:29:97:d4:7c:c3:53:c8:30:bd:4b:
                    67:70:2c:24:6b:b8:5e:eb:21:7a:48:12:56:7c:81:
                    5c:48:75:b6:68:eb:f6:f2:98:4e:50:51:d1:7f:6c:
                    73:f3:0a:a7:ae:be:48:5e:e5:d6:e1:d9:2a:7c:32:
                    6e:4e:fd:08:f6:5a:54:49:23:73:c3:b9:07:18:d1:
                    ef:b3:ac:f8:8a:dc:94:96:a4:90:3a:8e:74:df:e6:
                    0d:37:1b:bd:5b:b7:25:1a:56:39:da:6f:91:aa:5e:
                    1c:74:f3:f9:7c:14:01:83:12:65:76:c7:bb:fe:36:
                    5b:95:e9:72:65:83:ed:3e:98:30:71:fa:87:dd:a3:
                    36:5a:30:03:2e:26:e0:61:d1:bf:02:3f:b6:06:1f:
                    4a:89:28:1c:5c:a2:ff:4e:be:94:e6:8c:e0:da:82:
                    f1:9d:29:32:48:30:73:b4:04:f6:42:1e:be:f7:e2:
                    32:32:27:3c:9d:89:2f:70:3e:85:9a:6f:5c:c5:09:
                    c0:8c:32:2f:72:22:c9:d2:95:1f:b6:ac:72:60:72:
                    b7:82:4d:6b:ce:5b:e3:00:d0:d2:2f:58:c6:e0:10:
                    e5:51:ca:4d:3b:2e:e6:7e:ab:84:d6:56:f1:93:35:
                    a0:93:64:26:81:75:2f:91:b5:16:06:38:0b:db:cc:
                    2d:07
                Exponent: 65537 (0x10001)
        X509v3 extensions:
            X509v3 Key Usage: 
                Digital Signature, Key Encipherment
            X509v3 Basic Constraints: 
                CA:FALSE
            Netscape Cert Type: 
                SSL Server
            Netscape Comment: 
                OpenSSL Generated Server Certificate
            X509v3 Subject Key Identifier: 
                FC:14:D1:F0:4B:8D:00:90:F2:F5:B8:71:9E:4E:97:C3:92:54:AD:0B
            X509v3 Authority Key Identifier: 
                keyid:F4:A7:C0:CC:91:46:AF:64:F3:91:F2:27:F8:C8:B2:6F:8A:87:32:73
                DirName:/C=DE/ST=Hessen/O=privacyidea/CN=CA001
                serial:FB:C8:EB:AC:83:CD:12:07

            X509v3 Extended Key Usage: 
                TLS Web Server Authentication
    Signature Algorithm: sha256WithRSAEncryption
         3b:cd:5b:00:79:d6:5a:55:df:89:5e:bb:15:29:91:08:76:e7:
         34:cd:8a:66:69:e4:2d:d0:5a:03:a9:26:fe:c9:0d:8f:97:45:
         51:a7:b3:14:ed:79:fa:b5:a7:10:14:bd:14:05:3d:84:de:92:
         cd:e9:d3:0f:74:a8:7c:c2:32:e5:8a:11:79:19:b3:5c:0d:fd:
         aa:93:f3:bd:ca:17:f0:15:5d:e0:7b:32:98:e2:b2:bc:52:ee:
         4a:a0:d9:de:4f:b2:0f:87:b2:4a:53:30:55:90:91:e2:d1:39:
         c1:20:9d:37:63:d4:db:6f:95:b2:fe:fa:93:3f:ce:f1:28:12:
         06:06:63:51:5c:ba:d2:84:46:ae:f6:6a:df:a2:82:e3:90:34:
         2f:9c:41:9d:19:20:83:07:42:35:d9:11:84:e2:7a:d9:10:f0:
         e5:2c:ee:09:e6:ff:16:ff:f9:54:e1:b4:fd:1d:47:0d:31:25:
         59:58:27:a4:7d:94:9c:df:a2:6a:21:20:d1:54:17:3f:2a:2c:
         ec:02:5d:8b:34:63:fc:eb:ab:08:b8:d1:5b:94:b8:28:26:1c:
         0a:d7:df:2f:24:6e:6b:b9:f5:5b:a2:86:47:3f:a5:cc:d4:3b:
         05:02:b5:43:b7:01:69:5b:87:23:d1:79:54:9a:cd:01:a9:e0:
         68:b8:6c:12
-----BEGIN CERTIFICATE-----
MIIEGTCCAwGgAwIBAgIEEAAA0jANBgkqhkiG9w0BAQsFADBEMQswCQYDVQQGEwJE
RTEPMA0GA1UECAwGSGVzc2VuMRQwEgYDVQQKDAtwcml2YWN5aWRlYTEOMAwGA1UE
AwwFQ0EwMDEwHhcNMTcwMzAxMTQzNDQyWhcNMTgwMzAxMTQzNDQyWjBHMQswCQYD
VQQGEwJERTEPMA0GA1UECAwGSGVzc2VuMRQwEgYDVQQKDAtwcml2YWN5aWRlYTER
MA8GA1UEAwwIdXNlcmNlcnQwggEiMA0GCSqGSIb3DQEBAQUAA4IBDwAwggEKAoIB
AQDcL9FfKZfUfMNTyDC9S2dwLCRruF7rIXpIElZ8gVxIdbZo6/bymE5QUdF/bHPz
Cqeuvkhe5dbh2Sp8Mm5O/Qj2WlRJI3PDuQcY0e+zrPiK3JSWpJA6jnTf5g03G71b
tyUaVjnab5GqXhx08/l8FAGDEmV2x7v+NluV6XJlg+0+mDBx+ofdozZaMAMuJuBh
0b8CP7YGH0qJKBxcov9OvpTmjODagvGdKTJIMHO0BPZCHr734jIyJzydiS9wPoWa
b1zFCcCMMi9yIsnSlR+2rHJgcreCTWvOW+MA0NIvWMbgEOVRyk07LuZ+q4TWVvGT
NaCTZCaBdS+RtRYGOAvbzC0HAgMBAAGjggEOMIIBCjALBgNVHQ8EBAMCBaAwCQYD
VR0TBAIwADARBglghkgBhvhCAQEEBAMCBkAwMwYJYIZIAYb4QgENBCYWJE9wZW5T
U0wgR2VuZXJhdGVkIFNlcnZlciBDZXJ0aWZpY2F0ZTAdBgNVHQ4EFgQU/BTR8EuN
AJDy9bhxnk6Xw5JUrQswdAYDVR0jBG0wa4AU9KfAzJFGr2TzkfIn+Miyb4qHMnOh
SKRGMEQxCzAJBgNVBAYTAkRFMQ8wDQYDVQQIDAZIZXNzZW4xFDASBgNVBAoMC3By
aXZhY3lpZGVhMQ4wDAYDVQQDDAVDQTAwMYIJAPvI66yDzRIHMBMGA1UdJQQMMAoG
CCsGAQUFBwMBMA0GCSqGSIb3DQEBCwUAA4IBAQA7zVsAedZaVd+JXrsVKZEIduc0
zYpmaeQt0FoDqSb+yQ2Pl0VRp7MU7Xn6tacQFL0UBT2E3pLN6dMPdKh8wjLlihF5
GbNcDf2qk/O9yhfwFV3gezKY4rK8Uu5KoNneT7IPh7JKUzBVkJHi0TnBIJ03Y9Tb
b5Wy/vqTP87xKBIGBmNRXLrShEau9mrfooLjkDQvnEGdGSCDB0I12RGE4nrZEPDl
LO4J5v8W//lU4bT9HUcNMSVZWCekfZSc36JqISDRVBc/KizsAl2LNGP866sIuNFb
lLgoJhwK198vJG5rufVbooZHP6XM1DsFArVDtwFpW4cj0XlUms0BqeBouGwS
-----END CERTIFICATE-----
