Certificate:
    Data:
        Version: 3 (0x2)
        Serial Number: 268435672 (0x100000d8)
    Signature Algorithm: sha256WithRSAEncryption
        Issuer: C=DE, ST=Hessen, O=privacyidea, CN=CA001
        Validity
            Not Before: Mar  1 14:41:24 2017 GMT
            Not After : Mar  1 14:41:24 2018 GMT
        Subject: CN=Steve Test/emailAddress=steve@openssl.org
        Subject Public Key Info:
            Public Key Algorithm: rsaEncryption
                Public-Key: (2048 bit)
                Modulus:
                    00:d2:81:89:20:51:48:0f:73:f4:11:32:24:d5:1f:
                    1c:fd:5c:f5:b6:e6:c5:f0:52:81:dc:d2:af:66:4a:
                    7c:93:31:61:5c:af:d1:6d:06:70:03:60:7c:72:0c:
                    88:dd:49:cd:9e:02:6c:d2:5a:d7:53:0f:f3:da:be:
                    69:64:b5:0f:0c:00:e3:b3:50:47:a3:b3:9b:ba:13:
                    50:d6:58:5a:4b:ab:39:e0:11:ca:0a:27:67:03:78:
                    22:66:6d:92:1e:1b:5c:49:ae:e6:6b:d1:8e:3b:9d:
                    06:d3:c6:ac:4d:53:43:10:ab:e8:96:c1:87:82:97:
                    99:8f:20:d3:99:12:37:31:84:e1:8a:ff:29:03:5f:
                    22:90:3e:7f:9b:e0:20:c1:ad:dc:ae:4c:39:1a:31:
                    96:17:02:8c:b2:d9:b4:0d:20:12:9b:7d:86:54:fd:
                    33:fd:c1:2a:62:46:f8:60:96:cf:6e:01:6f:22:df:
                    13:47:e7:97:ec:05:72:23:a3:62:f8:fa:ef:ac:9c:
                    72:f0:37:cb:2f:37:cf:90:a8:27:51:86:c6:d7:78:
                    08:8f:7e:25:a2:15:70:a2:fb:1c:b6:15:5e:a0:97:
                    8b:81:4c:09:28:8a:27:3b:94:bc:71:db:5b:71:37:
                    9a:2b:16:e0:6f:b5:c9:f5:4b:4f:20:ba:65:cf:af:
                    ad:ad
                Exponent: 65537 (0x10001)
        X509v3 extensions:
            X509v3 Key Usage: 
                Digital Signature, Key Encipherment
            X509v3 Basic Constraints: 
                CA:FALSE
            Netscape Cert Type: 
                SSL Server
            Netscape Comment: 
                OpenSSL Generated Server Certificate
            X509v3 Subject Key Identifier: 
                E5:25:6D:3E:AF:0D:DD:3F:4C:F2:45:19:39:D5:14:DB:7E:9C:C0:AD
            X509v3 Authority Key Identifier: 
                keyid:F4:A7:C0:CC:91:46:AF:64:F3:91:F2:27:F8:C8:B2:6F:8A:87:32:73
                DirName:/C=DE/ST=Hessen/O=privacyidea/CN=CA001
                serial:FB:C8:EB:AC:83:CD:12:07

            X509v3 Extended Key Usage: 
                TLS Web Server Authentication
    Signature Algorithm: sha256WithRSAEncryption
         32:cc:4c:f3:e9:de:d6:3c:61:e5:6f:a6:06:a4:b7:36:53:64:
         9f:75:99:13:9b:47:72:a8:06:b8:33:4b:d4:03:60:1b:dc:48:
         bb:ed:17:f8:04:d3:bc:a2:a3:39:04:4e:1e:91:13:1f:28:ca:
         28:bc:a5:dd:d1:65:c2:3c:48:90:0e:7b:98:39:da:5b:8d:be:
         f6:4b:6d:9c:62:fe:61:ca:a0:0f:c9:b5:89:16:c4:e2:e2:d7:
         03:f3:62:59:4c:0a:20:a7:a7:89:cb:10:fe:21:7f:ae:3f:7d:
         52:2b:ba:b3:3f:fc:f6:12:b4:d4:34:2a:03:a1:17:bc:82:01:
         c0:12:2e:cc:6c:45:c7:83:f7:ad:43:89:35:7e:4c:34:8a:32:
         9b:17:6a:a3:ed:6b:a2:38:9d:c6:ac:20:f9:25:19:d3:3d:80:
         e3:38:f3:b4:28:8c:83:ce:02:d8:27:f7:cc:9a:43:e7:f4:19:
         3a:c8:1c:be:cc:e7:50:ba:d0:ac:12:36:8a:f6:68:77:50:6a:
         f1:db:19:e5:78:76:e1:36:9e:aa:5e:03:44:81:a4:38:49:8f:
         e5:56:60:f4:72:3b:5d:f6:27:78:29:c3:18:e6:d8:d5:28:b4:
         20:16:3d:60:2b:85:6e:a5:6a:5d:61:1d:18:d3:5e:86:a2:d6:
         0c:5b:71:a6
-----BEGIN CERTIFICATE-----
MIIECTCCAvGgAwIBAgIEEAAA2DANBgkqhkiG9w0BAQsFADBEMQswCQYDVQQGEwJE
RTEPMA0GA1UECAwGSGVzc2VuMRQwEgYDVQQKDAtwcml2YWN5aWRlYTEOMAwGA1UE
AwwFQ0EwMDEwHhcNMTcwMzAxMTQ0MTI0WhcNMTgwMzAxMTQ0MTI0WjA3MRMwEQYD
VQQDDApTdGV2ZSBUZXN0MSAwHgYJKoZIhvcNAQkBFhFzdGV2ZUBvcGVuc3NsLm9y
ZzCCASIwDQYJKoZIhvcNAQEBBQADggEPADCCAQoCggEBANKBiSBRSA9z9BEyJNUf
HP1c9bbmxfBSgdzSr2ZKfJMxYVyv0W0GcANgfHIMiN1JzZ4CbNJa11MP89q+aWS1
DwwA47NQR6Ozm7oTUNZYWkurOeARygonZwN4ImZtkh4bXEmu5mvRjjudBtPGrE1T
QxCr6JbBh4KXmY8g05kSNzGE4Yr/KQNfIpA+f5vgIMGt3K5MORoxlhcCjLLZtA0g
Ept9hlT9M/3BKmJG+GCWz24BbyLfE0fnl+wFciOjYvj676yccvA3yy83z5CoJ1GG
xtd4CI9+JaIVcKL7HLYVXqCXi4FMCSiKJzuUvHHbW3E3misW4G+1yfVLTyC6Zc+v
ra0CAwEAAaOCAQ4wggEKMAsGA1UdDwQEAwIFoDAJBgNVHRMEAjAAMBEGCWCGSAGG
+EIBAQQEAwIGQDAzBglghkgBhvhCAQ0EJhYkT3BlblNTTCBHZW5lcmF0ZWQgU2Vy
dmVyIENlcnRpZmljYXRlMB0GA1UdDgQWBBTlJW0+rw3dP0zyRRk51RTbfpzArTB0
BgNVHSMEbTBrgBT0p8DMkUavZPOR8if4yLJviocyc6FIpEYwRDELMAkGA1UEBhMC
REUxDzANBgNVBAgMBkhlc3NlbjEUMBIGA1UECgwLcHJpdmFjeWlkZWExDjAMBgNV
BAMMBUNBMDAxggkA+8jrrIPNEgcwEwYDVR0lBAwwCgYIKwYBBQUHAwEwDQYJKoZI
hvcNAQELBQADggEBADLMTPPp3tY8YeVvpgaktzZTZJ91mRObR3KoBrgzS9QDYBvc
SLvtF/gE07yiozkETh6REx8oyii8pd3RZcI8SJAOe5g52luNvvZLbZxi/mHKoA/J
tYkWxOLi1wPzYllMCiCnp4nLEP4hf64/fVIrurM//PYStNQ0KgOhF7yCAcASLsxs
RceD961DiTV+TDSKMpsXaqPta6I4ncasIPklGdM9gOM487QojIPOAtgn98yaQ+f0
GTrIHL7M51C60KwSNor2aHdQavHbGeV4duE2nqpeA0SBpDhJj+VWYPRyO132J3gp
wxjm2NUotCAWPWArhW6lal1hHRjTXoai1gxbcaY=
-----END CERTIFICATE-----
