Certificate:
    Data:
        Version: 3 (0x2)
        Serial Number: 268435673 (0x100000d9)
    Signature Algorithm: sha256WithRSAEncryption
        Issuer: C=DE, ST=Hessen, O=privacyidea, CN=CA001
        Validity
            Not Before: Mar  1 14:41:25 2017 GMT
            Not After : Mar 21 14:41:25 2019 GMT
        Subject: CN=Steve Test/emailAddress=steve@openssl.org
        Subject Public Key Info:
            Public Key Algorithm: rsaEncryption
                Public-Key: (2048 bit)
                Modulus:
                    00:d2:81:89:20:51:48:0f:73:f4:11:32:24:d5:1f:
                    1c:fd:5c:f5:b6:e6:c5:f0:52:81:dc:d2:af:66:4a:
                    7c:93:31:61:5c:af:d1:6d:06:70:03:60:7c:72:0c:
                    88:dd:49:cd:9e:02:6c:d2:5a:d7:53:0f:f3:da:be:
                    69:64:b5:0f:0c:00:e3:b3:50:47:a3:b3:9b:ba:13:
                    50:d6:58:5a:4b:ab:39:e0:11:ca:0a:27:67:03:78:
                    22:66:6d:92:1e:1b:5c:49:ae:e6:6b:d1:8e:3b:9d:
                    06:d3:c6:ac:4d:53:43:10:ab:e8:96:c1:87:82:97:
                    99:8f:20:d3:99:12:37:31:84:e1:8a:ff:29:03:5f:
                    22:90:3e:7f:9b:e0:20:c1:ad:dc:ae:4c:39:1a:31:
                    96:17:02:8c:b2:d9:b4:0d:20:12:9b:7d:86:54:fd:
                    33:fd:c1:2a:62:46:f8:60:96:cf:6e:01:6f:22:df:
                    13:47:e7:97:ec:05:72:23:a3:62:f8:fa:ef:ac:9c:
                    72:f0:37:cb:2f:37:cf:90:a8:27:51:86:c6:d7:78:
                    08:8f:7e:25:a2:15:70:a2:fb:1c:b6:15:5e:a0:97:
                    8b:81:4c:09:28:8a:27:3b:94:bc:71:db:5b:71:37:
                    9a:2b:16:e0:6f:b5:c9:f5:4b:4f:20:ba:65:cf:af:
                    ad:ad
                Exponent: 65537 (0x10001)
        X509v3 extensions:
            X509v3 Key Usage: 
                Digital Signature, Key Encipherment
            X509v3 Basic Constraints: 
                CA:FALSE
            Netscape Cert Type: 
                SSL Server
            Netscape Comment: 
                OpenSSL Generated Server Certificate
            X509v3 Subject Key Identifier: 
                E5:25:6D:3E:AF:0D:DD:3F:4C:F2:45:19:39:D5:14:DB:7E:9C:C0:AD
            X509v3 Authority Key Identifier: 
                keyid:F4:A7:C0:CC:91:46:AF:64:F3:91:F2:27:F8:C8:B2:6F:8A:87:32:73
                DirName:/C=DE/ST=Hessen/O=privacyidea/CN=CA001
                serial:FB:C8:EB:AC:83:CD:12:07

            X509v3 Extended Key Usage: 
                TLS Web Server Authentication
    Signature Algorithm: sha256WithRSAEncryption
         9e:68:6a:2d:3b:d4:a4:46:c6:ea:40:91:6f:a2:6d:68:4d:58:
         d9:ff:41:b6:56:16:26:7c:da:9c:0a:00:9d:b0:b4:bd:ea:4e:
         95:91:f3:ff:99:64:7d:d9:ac:58:c6:11:d6:ed:98:5c:82:25:
         e9:57:a0:6a:07:28:53:b9:cd:26:62:c1:f7:d8:b8:67:d1:f4:
         85:29:ae:21:71:3a:00:d3:cb:22:a4:d4:d5:18:58:d8:f7:bc:
         eb:1c:c9:85:66:0e:3b:6e:56:09:ff:bb:42:59:a8:34:15:51:
         d3:02:5f:28:19:7f:0f:25:5a:33:7b:a3:5e:9e:20:d8:dc:fe:
         93:ea:c8:59:9b:2f:d6:85:f2:e9:57:6e:82:99:fe:b1:6f:5b:
         30:f2:0a:f5:a6:6f:3e:3a:73:77:d9:61:88:35:8b:47:60:df:
         df:14:a7:6a:d3:fb:c6:a4:5f:a6:43:64:e3:b6:d9:da:52:27:
         de:0d:5b:40:16:0d:5b:9c:9b:48:dd:08:9d:5b:13:40:f2:a3:
         4d:ad:eb:d1:02:d8:f6:90:7b:89:85:e4:d5:a4:81:53:7c:08:
         9f:50:d8:b1:08:5f:59:2f:31:9b:96:49:57:80:24:c8:7c:c2:
         6c:b1:c5:2e:d4:4e:f4:a8:ff:b1:99:28:13:b9:51:a3:8a:03:
         2c:62:1f:60
-----BEGIN CERTIFICATE-----
MIIECTCCAvGgAwIBAgIEEAAA2TANBgkqhkiG9w0BAQsFADBEMQswCQYDVQQGEwJE
RTEPMA0GA1UECAwGSGVzc2VuMRQwEgYDVQQKDAtwcml2YWN5aWRlYTEOMAwGA1UE
AwwFQ0EwMDEwHhcNMTcwMzAxMTQ0MTI1WhcNMTkwMzIxMTQ0MTI1WjA3MRMwEQYD
VQQDDApTdGV2ZSBUZXN0MSAwHgYJKoZIhvcNAQkBFhFzdGV2ZUBvcGVuc3NsLm9y
ZzCCASIwDQYJKoZIhvcNAQEBBQADggEPADCCAQoCggEBANKBiSBRSA9z9BEyJNUf
HP1c9bbmxfBSgdzSr2ZKfJMxYVyv0W0GcANgfHIMiN1JzZ4CbNJa11MP89q+aWS1
DwwA47NQR6Ozm7oTUNZYWkurOeARygonZwN4ImZtkh4bXEmu5mvRjjudBtPGrE1T
QxCr6JbBh4KXmY8g05kSNzGE4Yr/KQNfIpA+f5vgIMGt3K5MORoxlhcCjLLZtA0g
Ept9hlT9M/3BKmJG+GCWz24BbyLfE0fnl+wFciOjYvj676yccvA3yy83z5CoJ1GG
xtd4CI9+JaIVcKL7HLYVXqCXi4FMCSiKJzuUvHHbW3E3misW4G+1yfVLTyC6Zc+v
ra0CAwEAAaOCAQ4wggEKMAsGA1UdDwQEAwIFoDAJBgNVHRMEAjAAMBEGCWCGSAGG
+EIBAQQEAwIGQDAzBglghkgBhvhCAQ0EJhYkT3BlblNTTCBHZW5lcmF0ZWQgU2Vy
dmVyIENlcnRpZmljYXRlMB0GA1UdDgQWBBTlJW0+rw3dP0zyRRk51RTbfpzArTB0
BgNVHSMEbTBrgBT0p8DMkUavZPOR8if4yLJviocyc6FIpEYwRDELMAkGA1UEBhMC
REUxDzANBgNVBAgMBkhlc3NlbjEUMBIGA1UECgwLcHJpdmFjeWlkZWExDjAMBgNV
BAMMBUNBMDAxggkA+8jrrIPNEgcwEwYDVR0lBAwwCgYIKwYBBQUHAwEwDQYJKoZI
hvcNAQELBQADggEBAJ5oai071KRGxupAkW+ibWhNWNn/QbZWFiZ82pwKAJ2wtL3q
TpWR8/+ZZH3ZrFjGEdbtmFyCJelXoGoHKFO5zSZiwffYuGfR9IUpriFxOgDTyyKk
1NUYWNj3vOscyYVmDjtuVgn/u0JZqDQVUdMCXygZfw8lWjN7o16eINjc/pPqyFmb
L9aF8ulXboKZ/rFvWzDyCvWmbz46c3fZYYg1i0dg398Up2rT+8akX6ZDZOO22dpS
J94NW0AWDVucm0jdCJ1bE0Dyo02t69EC2PaQe4mF5NWkgVN8CJ9Q2LEIX1kvMZuW
SVeAJMh8wmyxxS7UTvSo/7GZKBO5UaOKAyxiH2A=
-----END CERTIFICATE-----
