Certificate:
    Data:
        Version: 3 (0x2)
        Serial Number: 268435665 (0x100000d1)
    Signature Algorithm: sha256WithRSAEncryption
        Issuer: C=DE, ST=Hessen, O=privacyidea, CN=CA001
        Validity
            Not Before: Mar  1 14:34:42 2017 GMT
            Not After : Mar  1 14:34:42 2018 GMT
        Subject: C=DE, ST=Hessen, O=privacyidea, CN=requester.localdomain
        Subject Public Key Info:
            Public Key Algorithm: rsaEncryption
                Public-Key: (2048 bit)
                Modulus:
                    00:cd:be:14:4f:fa:ce:01:3f:42:22:1b:1d:9c:af:
                    dd:92:d2:7f:db:6c:b7:3e:39:43:43:6b:13:03:f1:
                    05:f4:07:74:bc:76:69:28:0b:af:19:8e:d7:fc:e3:
                    cd:c6:58:f2:ca:7f:08:6d:53:fc:07:02:44:24:c6:
                    b4:34:4c:8c:04:fe:33:0e:40:e2:20:ba:02:73:5a:
                    f7:f5:4f:63:6e:cc:c6:b6:df:54:1d:37:39:7d:51:
                    36:26:5f:bd:dc:3f:a8:8b:6b:a2:ae:b6:9d:d6:21:
                    e7:df:41:b8:7a:28:2a:68:48:ca:a8:2d:ed:e1:e9:
                    46:5e:5a:72:6d:b4:84:38:87:91:fd:94:11:0b:28:
                    84:c6:c2:2f:2a:fb:01:f9:36:7a:09:75:d1:33:88:
                    3c:73:41:5b:c8:bf:94:89:70:a1:f0:c0:b9:2e:50:
                    53:1e:b1:17:64:69:f4:2d:81:e0:a9:0d:0e:32:e9:
                    ba:55:8a:85:f1:1b:6f:49:79:b4:7f:88:c3:0d:3e:
                    54:88:9b:3d:1f:38:8c:04:f3:ee:6a:63:2b:f5:c6:
                    db:b4:83:aa:c4:78:41:3a:7d:4b:e1:c8:3e:71:ca:
                    1b:61:59:ea:c6:c4:ca:32:5e:c9:e9:bf:12:29:e6:
                    c6:c3:63:fe:a0:55:da:7a:f1:60:98:4d:26:ed:fa:
                    70:2d
                Exponent: 65537 (0x10001)
        X509v3 extensions:
            X509v3 Key Usage: 
                Digital Signature, Key Encipherment
            X509v3 Basic Constraints: 
                CA:FALSE
            Netscape Cert Type: 
                SSL Server
            Netscape Comment: 
                OpenSSL Generated Server Certificate
            X509v3 Subject Key Identifier: 
                53:3F:ED:5D:09:07:B3:65:7B:AB:45:C9:24:5B:09:77:80:0A:96:ED
            X509v3 Authority Key Identifier: 
                keyid:F4:A7:C0:CC:91:46:AF:64:F3:91:F2:27:F8:C8:B2:6F:8A:87:32:73
                DirName:/C=DE/ST=Hessen/O=privacyidea/CN=CA001
                serial:FB:C8:EB:AC:83:CD:12:07

            X509v3 Extended Key Usage: 
                TLS Web Server Authentication
    Signature Algorithm: sha256WithRSAEncryption
         72:d7:48:ea:0f:3a:1b:26:4c:0a:3e:22:e1:23:0b:68:16:69:
         f4:88:c0:8e:a6:94:c8:53:fa:e1:b8:0f:91:34:30:7b:38:5d:
         2a:f9:b6:66:b6:38:43:86:fa:bb:8b:51:6f:cc:e7:ad:2a:2e:
         01:df:65:77:79:9f:98:b7:76:23:fc:6c:41:17:43:3a:f5:e3:
         66:4c:32:4e:a5:7b:eb:15:94:79:8c:3f:4a:33:ce:c3:7c:3b:
         4d:88:d1:59:a7:5c:4b:c6:f5:bb:9e:5c:00:3a:20:e8:d6:73:
         e0:ae:f2:71:71:42:0b:6a:37:a4:cd:eb:33:52:75:d0:b5:be:
         57:3f:00:56:79:61:6d:e5:cc:ea:5e:59:e2:1d:26:94:80:ab:
         c2:58:b3:ca:98:ea:d5:ed:21:36:ad:2c:83:85:51:64:e5:0c:
         d8:1e:e6:07:4c:39:88:1c:d9:9f:04:7c:e8:aa:6d:82:bd:f8:
         21:68:92:59:ea:e9:58:a1:d3:80:9f:71:bb:f0:52:bd:fa:c2:
         d9:dd:4e:7d:ba:62:15:0a:53:c4:fa:80:b7:79:73:21:53:96:
         34:37:0d:8b:f2:d2:92:b6:60:f4:48:57:3e:e3:c6:14:8b:62:
         f4:87:28:86:94:58:4e:50:e5:d7:52:22:d2:cb:9a:46:62:66:
         bb:60:4e:33
-----BEGIN CERTIFICATE-----
MIIEJjCCAw6gAwIBAgIEEAAA0TANBgkqhkiG9w0BAQsFADBEMQswCQYDVQQGEwJE
RTEPMA0GA1UECAwGSGVzc2VuMRQwEgYDVQQKDAtwcml2YWN5aWRlYTEOMAwGA1UE
AwwFQ0EwMDEwHhcNMTcwMzAxMTQzNDQyWhcNMTgwMzAxMTQzNDQyWjBUMQswCQYD
VQQGEwJERTEPMA0GA1UECAwGSGVzc2VuMRQwEgYDVQQKDAtwcml2YWN5aWRlYTEe
MBwGA1UEAwwVcmVxdWVzdGVyLmxvY2FsZG9tYWluMIIBIjANBgkqhkiG9w0BAQEF
AAOCAQ8AMIIBCgKCAQEAzb4UT/rOAT9CIhsdnK/dktJ/22y3PjlDQ2sTA/EF9Ad0
vHZpKAuvGY7X/OPNxljyyn8IbVP8BwJEJMa0NEyMBP4zDkDiILoCc1r39U9jbszG
tt9UHTc5fVE2Jl+93D+oi2uirrad1iHn30G4eigqaEjKqC3t4elGXlpybbSEOIeR
/ZQRCyiExsIvKvsB+TZ6CXXRM4g8c0FbyL+UiXCh8MC5LlBTHrEXZGn0LYHgqQ0O
Mum6VYqF8RtvSXm0f4jDDT5UiJs9HziMBPPuamMr9cbbtIOqxHhBOn1L4cg+ccob
YVnqxsTKMl7J6b8SKebGw2P+oFXaevFgmE0m7fpwLQIDAQABo4IBDjCCAQowCwYD
VR0PBAQDAgWgMAkGA1UdEwQCMAAwEQYJYIZIAYb4QgEBBAQDAgZAMDMGCWCGSAGG
+EIBDQQmFiRPcGVuU1NMIEdlbmVyYXRlZCBTZXJ2ZXIgQ2VydGlmaWNhdGUwHQYD
VR0OBBYEFFM/7V0JB7Nle6tFySRbCXeACpbtMHQGA1UdIwRtMGuAFPSnwMyRRq9k
85HyJ/jIsm+KhzJzoUikRjBEMQswCQYDVQQGEwJERTEPMA0GA1UECAwGSGVzc2Vu
MRQwEgYDVQQKDAtwcml2YWN5aWRlYTEOMAwGA1UEAwwFQ0EwMDGCCQD7yOusg80S
BzATBgNVHSUEDDAKBggrBgEFBQcDATANBgkqhkiG9w0BAQsFAAOCAQEActdI6g86
GyZMCj4i4SMLaBZp9IjAjqaUyFP64bgPkTQwezhdKvm2ZrY4Q4b6u4tRb8znrSou
Ad9ld3mfmLd2I/xsQRdDOvXjZkwyTqV76xWUeYw/SjPOw3w7TYjRWadcS8b1u55c
ADog6NZz4K7ycXFCC2o3pM3rM1J10LW+Vz8AVnlhbeXM6l5Z4h0mlICrwlizypjq
1e0hNq0sg4VRZOUM2B7mB0w5iBzZnwR86Kptgr34IWiSWerpWKHTgJ9xu/BSvfrC
2d1OfbpiFQpTxPqAt3lzIVOWNDcNi/LSkrZg9EhXPuPGFIti9IcohpRYTlDl11Ii
0suaRmJmu2BOMw==
-----END CERTIFICATE-----
