Certificate:
    Data:
        Version: 3 (0x2)
        Serial Number: 268435675 (0x100000db)
    Signature Algorithm: sha256WithRSAEncryption
        Issuer: C=DE, ST=Hessen, O=privacyidea, CN=CA001
        Validity
            Not Before: Mar  1 14:44:59 2017 GMT
            Not After : Mar  1 14:44:59 2018 GMT
        Subject: OU=realm1, CN=cornelius/emailAddress=user@localhost.localdomain
        Subject Public Key Info:
            Public Key Algorithm: rsaEncryption
                Public-Key: (2048 bit)
                Modulus:
                    00:ff:3d:64:bd:a5:59:c7:8e:ef:8b:77:7c:b7:34:
                    fd:27:37:60:53:43:49:73:bc:45:7a:4d:6d:4c:7a:
                    30:41:3c:8a:b0:1b:07:de:e5:01:9c:43:bf:46:1d:
                    37:d0:f5:84:31:26:f9:f8:d4:96:2f:ba:bf:6f:74:
                    25:b0:14:64:b6:75:b1:6f:f8:5e:6a:db:7c:6a:d7:
                    30:ae:70:52:0f:56:c9:1e:2e:b3:be:d9:57:4b:1c:
                    1e:cc:08:87:75:75:ef:98:a1:4f:33:a4:95:9b:84:
                    50:e5:4e:fc:a4:c2:15:7c:08:95:b6:2b:5d:2b:0c:
                    97:5f:57:23:51:d9:69:30:05:e6:d5:09:58:0a:a7:
                    db:16:f1:bd:f2:1f:58:e2:e7:cf:49:e4:a4:93:66:
                    26:43:b7:7d:51:88:c6:d4:a3:0a:18:a3:25:d5:15:
                    18:64:cd:cd:b5:63:fe:a3:d1:80:61:cf:1b:96:97:
                    85:4f:d0:ba:86:f8:57:95:c1:48:00:0e:8c:34:f3:
                    56:b4:1e:dd:4a:dd:e1:45:85:79:4c:4e:c9:fa:9a:
                    30:c0:bd:2f:e5:9f:10:56:82:f5:ff:81:4e:87:ac:
                    8c:60:10:04:e6:1f:44:a8:e4:9a:7f:fe:74:38:b1:
                    98:c5:a2:b4:57:31:7b:73:e9:ab:4b:cd:d5:6b:6a:
                    38:ab
                Exponent: 65537 (0x10001)
        X509v3 extensions:
            X509v3 Key Usage: 
                Digital Signature, Key Encipherment
            X509v3 Basic Constraints: 
                CA:FALSE
            Netscape Cert Type: 
                SSL Server
            Netscape Comment: 
                OpenSSL Generated Server Certificate
            X509v3 Subject Key Identifier: 
                BD:23:70:98:92:4C:52:D9:73:B7:B7:48:46:2C:6A:72:3E:8B:36:70
            X509v3 Authority Key Identifier: 
                keyid:F4:A7:C0:CC:91:46:AF:64:F3:91:F2:27:F8:C8:B2:6F:8A:87:32:73
                DirName:/C=DE/ST=Hessen/O=privacyidea/CN=CA001
                serial:FB:C8:EB:AC:83:CD:12:07

            X509v3 Extended Key Usage: 
                TLS Web Server Authentication
    Signature Algorithm: sha256WithRSAEncryption
         97:29:09:be:04:db:3e:d5:5a:6d:2d:6d:b6:77:62:f7:5e:a2:
         58:18:25:10:38:0d:ab:e1:48:fb:9f:f6:50:0c:29:00:69:8a:
         ef:31:94:21:86:bd:71:2e:8d:b9:97:8f:89:a2:e9:0c:5e:bc:
         0e:13:e5:49:1c:1b:d3:8b:64:12:fa:90:2b:95:36:38:84:5e:
         85:4f:de:f0:5d:78:f7:da:42:b3:91:33:3f:b7:ab:ff:0e:dc:
         bc:7b:25:1b:9e:f4:ef:0d:90:2b:b6:6c:db:ca:d2:f3:4e:3c:
         ea:03:50:50:98:cf:3c:65:f5:fb:5f:ff:21:e5:05:ec:e1:da:
         46:14:57:4c:3c:dc:f8:4c:19:e7:58:2b:78:aa:6d:33:f8:53:
         17:f7:da:81:75:7c:7e:91:c8:c8:11:7f:ab:69:68:a7:f3:b7:
         ec:83:b2:a6:c5:6a:ab:4c:e5:d5:17:4a:0f:b7:8a:42:6b:be:
         eb:c5:7f:bb:bc:6b:b4:00:78:e7:a4:a9:7e:0a:00:d7:38:72:
         d0:db:d6:92:18:de:d0:52:65:8c:33:f2:72:c6:23:42:e9:f4:
         8c:74:76:6a:9e:5c:48:09:e5:9c:3e:2d:c1:86:90:d8:36:0e:
         c0:b7:ee:ad:86:09:02:ca:d5:31:7d:cb:b5:fb:3c:9e:84:6d:
         c0:58:6d:04
-----BEGIN CERTIFICATE-----
MIIEIjCCAwqgAwIBAgIEEAAA2zANBgkqhkiG9w0BAQsFADBEMQswCQYDVQQGEwJE
RTEPMA0GA1UECAwGSGVzc2VuMRQwEgYDVQQKDAtwcml2YWN5aWRlYTEOMAwGA1UE
AwwFQ0EwMDEwHhcNMTcwMzAxMTQ0NDU5WhcNMTgwMzAxMTQ0NDU5WjBQMQ8wDQYD
VQQLDAZyZWFsbTExEjAQBgNVBAMMCWNvcm5lbGl1czEpMCcGCSqGSIb3DQEJARYa
dXNlckBsb2NhbGhvc3QubG9jYWxkb21haW4wggEiMA0GCSqGSIb3DQEBAQUAA4IB
DwAwggEKAoIBAQD/PWS9pVnHju+Ld3y3NP0nN2BTQ0lzvEV6TW1MejBBPIqwGwfe
5QGcQ79GHTfQ9YQxJvn41JYvur9vdCWwFGS2dbFv+F5q23xq1zCucFIPVskeLrO+
2VdLHB7MCId1de+YoU8zpJWbhFDlTvykwhV8CJW2K10rDJdfVyNR2WkwBebVCVgK
p9sW8b3yH1ji589J5KSTZiZDt31RiMbUowoYoyXVFRhkzc21Y/6j0YBhzxuWl4VP
0LqG+FeVwUgADow081a0Ht1K3eFFhXlMTsn6mjDAvS/lnxBWgvX/gU6HrIxgEATm
H0So5Jp//nQ4sZjForRXMXtz6atLzdVrajirAgMBAAGjggEOMIIBCjALBgNVHQ8E
BAMCBaAwCQYDVR0TBAIwADARBglghkgBhvhCAQEEBAMCBkAwMwYJYIZIAYb4QgEN
BCYWJE9wZW5TU0wgR2VuZXJhdGVkIFNlcnZlciBDZXJ0aWZpY2F0ZTAdBgNVHQ4E
FgQUvSNwmJJMUtlzt7dIRixqcj6LNnAwdAYDVR0jBG0wa4AU9KfAzJFGr2TzkfIn
+Miyb4qHMnOhSKRGMEQxCzAJBgNVBAYTAkRFMQ8wDQYDVQQIDAZIZXNzZW4xFDAS
BgNVBAoMC3ByaXZhY3lpZGVhMQ4wDAYDVQQDDAVDQTAwMYIJAPvI66yDzRIHMBMG
A1UdJQQMMAoGCCsGAQUFBwMBMA0GCSqGSIb3DQEBCwUAA4IBAQCXKQm+BNs+1Vpt
LW22d2L3XqJYGCUQOA2r4Uj7n/ZQDCkAaYrvMZQhhr1xLo25l4+JoukMXrwOE+VJ
HBvTi2QS+pArlTY4hF6FT97wXXj32kKzkTM/t6v/Dty8eyUbnvTvDZArtmzbytLz
TjzqA1BQmM88ZfX7X/8h5QXs4dpGFFdMPNz4TBnnWCt4qm0z+FMX99qBdXx+kcjI
EX+raWin87fsg7KmxWqrTOXVF0oPt4pCa77rxX+7vGu0AHjnpKl+CgDXOHLQ29aS
GN7QUmWMM/JyxiNC6fSMdHZqnlxICeWcPi3BhpDYNg7At+6thgkCytUxfcu1+zye
hG3AWG0E
-----END CERTIFICATE-----
