Certificate:
    Data:
        Version: 3 (0x2)
        Serial Number: 268435671 (0x100000d7)
    Signature Algorithm: sha256WithRSAEncryption
        Issuer: C=DE, ST=Hessen, O=privacyidea, CN=CA001
        Validity
            Not Before: Mar  1 14:41:24 2017 GMT
            Not After : Mar  1 14:41:24 2018 GMT
        Subject: C=DE, ST=Hessen, O=privacyidea, CN=usercert
        Subject Public Key Info:
            Public Key Algorithm: rsaEncryption
                Public-Key: (2048 bit)
                Modulus:
                    00:dc:2f:d1:5f:29:97:d4:7c:c3:53:c8:30:bd:4b:
                    67:70:2c:24:6b:b8:5e:eb:21:7a:48:12:56:7c:81:
                    5c:48:75:b6:68:eb:f6:f2:98:4e:50:51:d1:7f:6c:
                    73:f3:0a:a7:ae:be:48:5e:e5:d6:e1:d9:2a:7c:32:
                    6e:4e:fd:08:f6:5a:54:49:23:73:c3:b9:07:18:d1:
                    ef:b3:ac:f8:8a:dc:94:96:a4:90:3a:8e:74:df:e6:
                    0d:37:1b:bd:5b:b7:25:1a:56:39:da:6f:91:aa:5e:
                    1c:74:f3:f9:7c:14:01:83:12:65:76:c7:bb:fe:36:
                    5b:95:e9:72:65:83:ed:3e:98:30:71:fa:87:dd:a3:
                    36:5a:30:03:2e:26:e0:61:d1:bf:02:3f:b6:06:1f:
                    4a:89:28:1c:5c:a2:ff:4e:be:94:e6:8c:e0:da:82:
                    f1:9d:29:32:48:30:73:b4:04:f6:42:1e:be:f7:e2:
                    32:32:27:3c:9d:89:2f:70:3e:85:9a:6f:5c:c5:09:
                    c0:8c:32:2f:72:22:c9:d2:95:1f:b6:ac:72:60:72:
                    b7:82:4d:6b:ce:5b:e3:00:d0:d2:2f:58:c6:e0:10:
                    e5:51:ca:4d:3b:2e:e6:7e:ab:84:d6:56:f1:93:35:
                    a0:93:64:26:81:75:2f:91:b5:16:06:38:0b:db:cc:
                    2d:07
                Exponent: 65537 (0x10001)
        X509v3 extensions:
            X509v3 Key Usage: 
                Digital Signature, Key Encipherment
            X509v3 Basic Constraints: 
                CA:FALSE
            Netscape Cert Type: 
                SSL Server
            Netscape Comment: 
                OpenSSL Generated Server Certificate
            X509v3 Subject Key Identifier: 
                FC:14:D1:F0:4B:8D:00:90:F2:F5:B8:71:9E:4E:97:C3:92:54:AD:0B
            X509v3 Authority Key Identifier: 
                keyid:F4:A7:C0:CC:91:46:AF:64:F3:91:F2:27:F8:C8:B2:6F:8A:87:32:73
                DirName:/C=DE/ST=Hessen/O=privacyidea/CN=CA001
                serial:FB:C8:EB:AC:83:CD:12:07

            X509v3 Extended Key Usage: 
                TLS Web Server Authentication
    Signature Algorithm: sha256WithRSAEncryption
         19:cc:86:55:5d:73:c8:37:b2:11:28:7f:bf:ee:b7:74:9b:7f:
         ad:9c:d5:40:62:23:65:5e:22:33:98:57:57:4e:f7:64:25:bd:
         8e:ae:c2:05:f3:29:ab:97:be:a3:38:9b:e2:f2:25:54:64:5c:
         ab:4c:d7:2c:85:aa:35:c6:76:0f:7f:80:35:81:b6:5f:af:f1:
         75:53:f5:d6:99:1c:2e:a3:79:e7:ef:df:f6:50:15:d2:d3:de:
         25:d7:28:13:06:1c:8a:aa:69:c1:18:59:bc:db:ad:9f:3d:7a:
         06:bf:63:55:89:21:c3:9b:c6:c3:41:dc:e1:51:4e:b3:47:11:
         77:84:b2:7b:50:ee:e0:78:33:54:60:7b:d1:db:78:d5:14:a3:
         ae:6a:d0:3b:73:6f:18:a0:71:c9:2b:cc:a0:7c:dc:1f:a0:18:
         a4:d1:46:6f:88:93:df:fd:c3:36:41:7a:63:9e:80:d7:af:c8:
         2b:23:86:82:04:ae:1f:77:f2:2c:aa:57:91:ee:18:0b:21:6f:
         98:8d:69:02:89:94:cb:92:03:94:2a:b6:94:96:5d:7f:2e:c4:
         e2:e1:6a:bd:b6:0b:32:76:b7:02:56:43:56:62:2a:63:4d:06:
         8d:80:32:75:a2:90:b8:02:f6:fc:3b:2a:75:31:5d:c9:b7:ba:
         36:0f:f9:08
-----BEGIN CERTIFICATE-----
MIIEGTCCAwGgAwIBAgIEEAAA1zANBgkqhkiG9w0BAQsFADBEMQswCQYDVQQGEwJE
RTEPMA0GA1UECAwGSGVzc2VuMRQwEgYDVQQKDAtwcml2YWN5aWRlYTEOMAwGA1UE
AwwFQ0EwMDEwHhcNMTcwMzAxMTQ0MTI0WhcNMTgwMzAxMTQ0MTI0WjBHMQswCQYD
VQQGEwJERTEPMA0GA1UECAwGSGVzc2VuMRQwEgYDVQQKDAtwcml2YWN5aWRlYTER
MA8GA1UEAwwIdXNlcmNlcnQwggEiMA0GCSqGSIb3DQEBAQUAA4IBDwAwggEKAoIB
AQDcL9FfKZfUfMNTyDC9S2dwLCRruF7rIXpIElZ8gVxIdbZo6/bymE5QUdF/bHPz
Cqeuvkhe5dbh2Sp8Mm5O/Qj2WlRJI3PDuQcY0e+zrPiK3JSWpJA6jnTf5g03G71b
tyUaVjnab5GqXhx08/l8FAGDEmV2x7v+NluV6XJlg+0+mDBx+ofdozZaMAMuJuBh
0b8CP7YGH0qJKBxcov9OvpTmjODagvGdKTJIMHO0BPZCHr734jIyJzydiS9wPoWa
b1zFCcCMMi9yIsnSlR+2rHJgcreCTWvOW+MA0NIvWMbgEOVRyk07LuZ+q4TWVvGT
NaCTZCaBdS+RtRYGOAvbzC0HAgMBAAGjggEOMIIBCjALBgNVHQ8EBAMCBaAwCQYD
VR0TBAIwADARBglghkgBhvhCAQEEBAMCBkAwMwYJYIZIAYb4QgENBCYWJE9wZW5T
U0wgR2VuZXJhdGVkIFNlcnZlciBDZXJ0aWZpY2F0ZTAdBgNVHQ4EFgQU/BTR8EuN
AJDy9bhxnk6Xw5JUrQswdAYDVR0jBG0wa4AU9KfAzJFGr2TzkfIn+Miyb4qHMnOh
SKRGMEQxCzAJBgNVBAYTAkRFMQ8wDQYDVQQIDAZIZXNzZW4xFDASBgNVBAoMC3By
aXZhY3lpZGVhMQ4wDAYDVQQDDAVDQTAwMYIJAPvI66yDzRIHMBMGA1UdJQQMMAoG
CCsGAQUFBwMBMA0GCSqGSIb3DQEBCwUAA4IBAQAZzIZVXXPIN7IRKH+/7rd0m3+t
nNVAYiNlXiIzmFdXTvdkJb2OrsIF8ymrl76jOJvi8iVUZFyrTNcshao1xnYPf4A1
gbZfr/F1U/XWmRwuo3nn79/2UBXS094l1ygTBhyKqmnBGFm8262fPXoGv2NViSHD
m8bDQdzhUU6zRxF3hLJ7UO7geDNUYHvR23jVFKOuatA7c28YoHHJK8ygfNwfoBik
0UZviJPf/cM2QXpjnoDXr8grI4aCBK4fd/IsqleR7hgLIW+YjWkCiZTLkgOUKraU
ll1/LsTi4Wq9tgsydrcCVkNWYipjTQaNgDJ1opC4Avb8Oyp1MV3Jt7o2D/kI
-----END CERTIFICATE-----
