Certificate:
    Data:
        Version: 3 (0x2)
        Serial Number: 268435674 (0x100000da)
    Signature Algorithm: sha256WithRSAEncryption
        Issuer: C=DE, ST=Hessen, O=privacyidea, CN=CA001
        Validity
            Not Before: Mar  1 14:44:57 2017 GMT
            Not After : Mar  1 14:44:57 2018 GMT
        Subject: C=DE, ST=Hessen, O=privacyidea, CN=requester.localdomain
        Subject Public Key Info:
            Public Key Algorithm: rsaEncryption
                Public-Key: (2048 bit)
                Modulus:
                    00:cd:be:14:4f:fa:ce:01:3f:42:22:1b:1d:9c:af:
                    dd:92:d2:7f:db:6c:b7:3e:39:43:43:6b:13:03:f1:
                    05:f4:07:74:bc:76:69:28:0b:af:19:8e:d7:fc:e3:
                    cd:c6:58:f2:ca:7f:08:6d:53:fc:07:02:44:24:c6:
                    b4:34:4c:8c:04:fe:33:0e:40:e2:20:ba:02:73:5a:
                    f7:f5:4f:63:6e:cc:c6:b6:df:54:1d:37:39:7d:51:
                    36:26:5f:bd:dc:3f:a8:8b:6b:a2:ae:b6:9d:d6:21:
                    e7:df:41:b8:7a:28:2a:68:48:ca:a8:2d:ed:e1:e9:
                    46:5e:5a:72:6d:b4:84:38:87:91:fd:94:11:0b:28:
                    84:c6:c2:2f:2a:fb:01:f9:36:7a:09:75:d1:33:88:
                    3c:73:41:5b:c8:bf:94:89:70:a1:f0:c0:b9:2e:50:
                    53:1e:b1:17:64:69:f4:2d:81:e0:a9:0d:0e:32:e9:
                    ba:55:8a:85:f1:1b:6f:49:79:b4:7f:88:c3:0d:3e:
                    54:88:9b:3d:1f:38:8c:04:f3:ee:6a:63:2b:f5:c6:
                    db:b4:83:aa:c4:78:41:3a:7d:4b:e1:c8:3e:71:ca:
                    1b:61:59:ea:c6:c4:ca:32:5e:c9:e9:bf:12:29:e6:
                    c6:c3:63:fe:a0:55:da:7a:f1:60:98:4d:26:ed:fa:
                    70:2d
                Exponent: 65537 (0x10001)
        X509v3 extensions:
            X509v3 Key Usage: 
                Digital Signature, Key Encipherment
            X509v3 Basic Constraints: 
                CA:FALSE
            Netscape Cert Type: 
                SSL Server
            Netscape Comment: 
                OpenSSL Generated Server Certificate
            X509v3 Subject Key Identifier: 
                53:3F:ED:5D:09:07:B3:65:7B:AB:45:C9:24:5B:09:77:80:0A:96:ED
            X509v3 Authority Key Identifier: 
                keyid:F4:A7:C0:CC:91:46:AF:64:F3:91:F2:27:F8:C8:B2:6F:8A:87:32:73
                DirName:/C=DE/ST=Hessen/O=privacyidea/CN=CA001
                serial:FB:C8:EB:AC:83:CD:12:07

            X509v3 Extended Key Usage: 
                TLS Web Server Authentication
    Signature Algorithm: sha256WithRSAEncryption
         9d:fc:19:9d:89:c5:e8:15:5a:d2:95:51:21:52:f1:52:e0:73:
         a1:7a:9a:2b:6e:87:1e:2d:d3:1e:c6:ff:08:f5:f3:eb:42:e5:
         76:ca:1b:0b:19:4e:f4:52:bc:da:e3:ca:c3:eb:c5:f9:8b:b5:
         7c:b4:11:93:e3:9b:96:df:e3:9e:da:98:74:af:7d:60:3b:85:
         d4:7a:65:f8:58:6e:3c:11:94:11:30:60:b8:48:e0:80:80:ac:
         64:9c:27:54:1e:ce:bb:5c:9f:af:7f:02:d4:9c:1c:16:e8:32:
         5b:6c:ec:a5:93:7a:8e:c2:a3:ab:97:d1:e6:b8:25:81:fb:8e:
         a6:d2:e9:b6:49:82:90:74:37:4a:cd:a9:e6:34:2b:2c:96:69:
         ae:2a:e5:86:17:3c:09:f4:ab:dd:aa:c0:15:c8:e0:1a:48:89:
         2b:1a:81:9c:1d:8f:ad:e0:55:18:cf:57:78:0b:80:9f:03:58:
         83:6c:05:42:55:d7:a2:a1:16:b4:ee:16:62:c6:be:b9:67:28:
         51:41:e7:39:a9:86:92:eb:c3:5b:28:71:86:62:41:01:9f:43:
         33:e7:9d:54:d3:15:fe:2d:c4:a2:14:59:a4:10:6d:9e:68:11:
         79:68:09:95:a0:20:73:a5:ca:9e:12:75:6e:09:93:8e:09:93:
         72:9c:b2:fb
-----BEGIN CERTIFICATE-----
MIIEJjCCAw6gAwIBAgIEEAAA2jANBgkqhkiG9w0BAQsFADBEMQswCQYDVQQGEwJE
RTEPMA0GA1UECAwGSGVzc2VuMRQwEgYDVQQKDAtwcml2YWN5aWRlYTEOMAwGA1UE
AwwFQ0EwMDEwHhcNMTcwMzAxMTQ0NDU3WhcNMTgwMzAxMTQ0NDU3WjBUMQswCQYD
VQQGEwJERTEPMA0GA1UECAwGSGVzc2VuMRQwEgYDVQQKDAtwcml2YWN5aWRlYTEe
MBwGA1UEAwwVcmVxdWVzdGVyLmxvY2FsZG9tYWluMIIBIjANBgkqhkiG9w0BAQEF
AAOCAQ8AMIIBCgKCAQEAzb4UT/rOAT9CIhsdnK/dktJ/22y3PjlDQ2sTA/EF9Ad0
vHZpKAuvGY7X/OPNxljyyn8IbVP8BwJEJMa0NEyMBP4zDkDiILoCc1r39U9jbszG
tt9UHTc5fVE2Jl+93D+oi2uirrad1iHn30G4eigqaEjKqC3t4elGXlpybbSEOIeR
/ZQRCyiExsIvKvsB+TZ6CXXRM4g8c0FbyL+UiXCh8MC5LlBTHrEXZGn0LYHgqQ0O
Mum6VYqF8RtvSXm0f4jDDT5UiJs9HziMBPPuamMr9cbbtIOqxHhBOn1L4cg+ccob
YVnqxsTKMl7J6b8SKebGw2P+oFXaevFgmE0m7fpwLQIDAQABo4IBDjCCAQowCwYD
VR0PBAQDAgWgMAkGA1UdEwQCMAAwEQYJYIZIAYb4QgEBBAQDAgZAMDMGCWCGSAGG
+EIBDQQmFiRPcGVuU1NMIEdlbmVyYXRlZCBTZXJ2ZXIgQ2VydGlmaWNhdGUwHQYD
VR0OBBYEFFM/7V0JB7Nle6tFySRbCXeACpbtMHQGA1UdIwRtMGuAFPSnwMyRRq9k
85HyJ/jIsm+KhzJzoUikRjBEMQswCQYDVQQGEwJERTEPMA0GA1UECAwGSGVzc2Vu
MRQwEgYDVQQKDAtwcml2YWN5aWRlYTEOMAwGA1UEAwwFQ0EwMDGCCQD7yOusg80S
BzATBgNVHSUEDDAKBggrBgEFBQcDATANBgkqhkiG9w0BAQsFAAOCAQEAnfwZnYnF
6BVa0pVRIVLxUuBzoXqaK26HHi3THsb/CPXz60LldsobCxlO9FK82uPKw+vF+Yu1
fLQRk+Oblt/jntqYdK99YDuF1Hpl+FhuPBGUETBguEjggICsZJwnVB7Ou1yfr38C
1JwcFugyW2zspZN6jsKjq5fR5rglgfuOptLptkmCkHQ3Ss2p5jQrLJZprirlhhc8
CfSr3arAFcjgGkiJKxqBnB2PreBVGM9XeAuAnwNYg2wFQlXXoqEWtO4WYsa+uWco
UUHnOamGkuvDWyhxhmJBAZ9DM+edVNMV/i3EohRZpBBtnmgReWgJlaAgc6XKnhJ1
bgmTjgmTcpyy+w==
-----END CERTIFICATE-----
