Certificate:
    Data:
        Version: 3 (0x2)
        Serial Number: 268435666 (0x100000d2)
    Signature Algorithm: sha256WithRSAEncryption
        Issuer: C=DE, ST=Hessen, O=privacyidea, CN=CA001
        Validity
            Not Before: Mar  3 17:53:34 2017 GMT
            Not After : Mar  3 17:53:34 2018 GMT
        Subject: C=DE, ST=Hessen, O=privacyidea, CN=usercert
        Subject Public Key Info:
            Public Key Algorithm: rsaEncryption
                Public-Key: (2048 bit)
                Modulus:
                    00:dc:2f:d1:5f:29:97:d4:7c:c3:53:c8:30:bd:4b:
                    67:70:2c:24:6b:b8:5e:eb:21:7a:48:12:56:7c:81:
                    5c:48:75:b6:68:eb:f6:f2:98:4e:50:51:d1:7f:6c:
                    73:f3:0a:a7:ae:be:48:5e:e5:d6:e1:d9:2a:7c:32:
                    6e:4e:fd:08:f6:5a:54:49:23:73:c3:b9:07:18:d1:
                    ef:b3:ac:f8:8a:dc:94:96:a4:90:3a:8e:74:df:e6:
                    0d:37:1b:bd:5b:b7:25:1a:56:39:da:6f:91:aa:5e:
                    1c:74:f3:f9:7c:14:01:83:12:65:76:c7:bb:fe:36:
                    5b:95:e9:72:65:83:ed:3e:98:30:71:fa:87:dd:a3:
                    36:5a:30:03:2e:26:e0:61:d1:bf:02:3f:b6:06:1f:
                    4a:89:28:1c:5c:a2:ff:4e:be:94:e6:8c:e0:da:82:
                    f1:9d:29:32:48:30:73:b4:04:f6:42:1e:be:f7:e2:
                    32:32:27:3c:9d:89:2f:70:3e:85:9a:6f:5c:c5:09:
                    c0:8c:32:2f:72:22:c9:d2:95:1f:b6:ac:72:60:72:
                    b7:82:4d:6b:ce:5b:e3:00:d0:d2:2f:58:c6:e0:10:
                    e5:51:ca:4d:3b:2e:e6:7e:ab:84:d6:56:f1:93:35:
                    a0:93:64:26:81:75:2f:91:b5:16:06:38:0b:db:cc:
                    2d:07
                Exponent: 65537 (0x10001)
        X509v3 extensions:
            X509v3 Key Usage: 
                Digital Signature, Key Encipherment
            X509v3 Basic Constraints: 
                CA:FALSE
            Netscape Cert Type: 
                SSL Server
            Netscape Comment: 
                OpenSSL Generated Server Certificate
            X509v3 Subject Key Identifier: 
                FC:14:D1:F0:4B:8D:00:90:F2:F5:B8:71:9E:4E:97:C3:92:54:AD:0B
            X509v3 Authority Key Identifier: 
                keyid:F4:A7:C0:CC:91:46:AF:64:F3:91:F2:27:F8:C8:B2:6F:8A:87:32:73
                DirName:/C=DE/ST=Hessen/O=privacyidea/CN=CA001
                serial:FB:C8:EB:AC:83:CD:12:07

            X509v3 Extended Key Usage: 
                TLS Web Server Authentication
    Signature Algorithm: sha256WithRSAEncryption
         3a:1f:0f:26:17:d6:49:52:0b:27:c5:7e:af:37:8d:f1:4f:63:
         89:43:ab:76:92:12:34:e6:57:cf:e8:41:30:92:ed:2e:ed:9d:
         93:90:87:ed:ea:89:40:2c:99:f7:2b:41:ad:b0:40:6c:b7:dd:
         90:ff:d4:af:8b:a2:cc:2e:30:27:fa:1a:f4:dd:82:07:45:95:
         d0:bb:f2:f5:82:61:f1:52:4a:d8:08:b2:95:04:ff:24:4e:4c:
         0f:0f:4d:7a:cf:62:b1:f2:13:e2:b9:cd:b9:4f:35:86:0d:73:
         a6:b8:d8:4a:e0:d5:a3:fa:60:e9:30:d9:61:e8:3f:55:9f:b7:
         e2:69:8d:1d:00:2b:7f:ca:50:a5:73:85:ea:4d:8d:65:cf:3a:
         21:f9:95:b0:f1:37:3b:6f:80:09:c9:3b:ce:59:60:1f:0f:3a:
         44:5a:70:be:c3:99:6c:9d:40:7b:1d:dd:54:ac:42:ac:16:33:
         7c:5f:ca:c2:11:88:22:a5:b2:03:03:7d:86:f2:fa:e0:3c:b3:
         bf:f5:b3:d5:d2:d8:37:28:91:bb:ce:2a:62:74:fc:4d:66:12:
         0d:4e:f6:ec:93:cd:48:e9:ba:b1:8b:7f:26:e7:b0:0f:42:21:
         c6:8b:aa:53:21:e7:8c:1f:ad:10:9f:47:36:ef:b2:12:c8:fb:
         70:59:a3:32
-----BEGIN CERTIFICATE-----
MIIEGTCCAwGgAwIBAgIEEAAA0jANBgkqhkiG9w0BAQsFADBEMQswCQYDVQQGEwJE
RTEPMA0GA1UECAwGSGVzc2VuMRQwEgYDVQQKDAtwcml2YWN5aWRlYTEOMAwGA1UE
AwwFQ0EwMDEwHhcNMTcwMzAzMTc1MzM0WhcNMTgwMzAzMTc1MzM0WjBHMQswCQYD
VQQGEwJERTEPMA0GA1UECAwGSGVzc2VuMRQwEgYDVQQKDAtwcml2YWN5aWRlYTER
MA8GA1UEAwwIdXNlcmNlcnQwggEiMA0GCSqGSIb3DQEBAQUAA4IBDwAwggEKAoIB
AQDcL9FfKZfUfMNTyDC9S2dwLCRruF7rIXpIElZ8gVxIdbZo6/bymE5QUdF/bHPz
Cqeuvkhe5dbh2Sp8Mm5O/Qj2WlRJI3PDuQcY0e+zrPiK3JSWpJA6jnTf5g03G71b
tyUaVjnab5GqXhx08/l8FAGDEmV2x7v+NluV6XJlg+0+mDBx+ofdozZaMAMuJuBh
0b8CP7YGH0qJKBxcov9OvpTmjODagvGdKTJIMHO0BPZCHr734jIyJzydiS9wPoWa
b1zFCcCMMi9yIsnSlR+2rHJgcreCTWvOW+MA0NIvWMbgEOVRyk07LuZ+q4TWVvGT
NaCTZCaBdS+RtRYGOAvbzC0HAgMBAAGjggEOMIIBCjALBgNVHQ8EBAMCBaAwCQYD
VR0TBAIwADARBglghkgBhvhCAQEEBAMCBkAwMwYJYIZIAYb4QgENBCYWJE9wZW5T
U0wgR2VuZXJhdGVkIFNlcnZlciBDZXJ0aWZpY2F0ZTAdBgNVHQ4EFgQU/BTR8EuN
AJDy9bhxnk6Xw5JUrQswdAYDVR0jBG0wa4AU9KfAzJFGr2TzkfIn+Miyb4qHMnOh
SKRGMEQxCzAJBgNVBAYTAkRFMQ8wDQYDVQQIDAZIZXNzZW4xFDASBgNVBAoMC3By
aXZhY3lpZGVhMQ4wDAYDVQQDDAVDQTAwMYIJAPvI66yDzRIHMBMGA1UdJQQMMAoG
CCsGAQUFBwMBMA0GCSqGSIb3DQEBCwUAA4IBAQA6Hw8mF9ZJUgsnxX6vN43xT2OJ
Q6t2khI05lfP6EEwku0u7Z2TkIft6olALJn3K0GtsEBst92Q/9Svi6LMLjAn+hr0
3YIHRZXQu/L1gmHxUkrYCLKVBP8kTkwPD016z2Kx8hPiuc25TzWGDXOmuNhK4NWj
+mDpMNlh6D9Vn7fiaY0dACt/ylClc4XqTY1lzzoh+ZWw8Tc7b4AJyTvOWWAfDzpE
WnC+w5lsnUB7Hd1UrEKsFjN8X8rCEYgipbIDA32G8vrgPLO/9bPV0tg3KJG7zipi
dPxNZhINTvbsk81I6bqxi38m57APQiHGi6pTIeeMH60Qn0c277ISyPtwWaMy
-----END CERTIFICATE-----
