Certificate:
    Data:
        Version: 3 (0x2)
        Serial Number: 268435674 (0x100000da)
    Signature Algorithm: sha256WithRSAEncryption
        Issuer: C=DE, ST=Hessen, O=privacyidea, CN=CA001
        Validity
            Not Before: Mar  3 20:19:04 2017 GMT
            Not After : Mar  3 20:19:04 2018 GMT
        Subject: C=DE, ST=Hessen, O=privacyidea, CN=usercert
        Subject Public Key Info:
            Public Key Algorithm: rsaEncryption
                Public-Key: (2048 bit)
                Modulus:
                    00:dc:2f:d1:5f:29:97:d4:7c:c3:53:c8:30:bd:4b:
                    67:70:2c:24:6b:b8:5e:eb:21:7a:48:12:56:7c:81:
                    5c:48:75:b6:68:eb:f6:f2:98:4e:50:51:d1:7f:6c:
                    73:f3:0a:a7:ae:be:48:5e:e5:d6:e1:d9:2a:7c:32:
                    6e:4e:fd:08:f6:5a:54:49:23:73:c3:b9:07:18:d1:
                    ef:b3:ac:f8:8a:dc:94:96:a4:90:3a:8e:74:df:e6:
                    0d:37:1b:bd:5b:b7:25:1a:56:39:da:6f:91:aa:5e:
                    1c:74:f3:f9:7c:14:01:83:12:65:76:c7:bb:fe:36:
                    5b:95:e9:72:65:83:ed:3e:98:30:71:fa:87:dd:a3:
                    36:5a:30:03:2e:26:e0:61:d1:bf:02:3f:b6:06:1f:
                    4a:89:28:1c:5c:a2:ff:4e:be:94:e6:8c:e0:da:82:
                    f1:9d:29:32:48:30:73:b4:04:f6:42:1e:be:f7:e2:
                    32:32:27:3c:9d:89:2f:70:3e:85:9a:6f:5c:c5:09:
                    c0:8c:32:2f:72:22:c9:d2:95:1f:b6:ac:72:60:72:
                    b7:82:4d:6b:ce:5b:e3:00:d0:d2:2f:58:c6:e0:10:
                    e5:51:ca:4d:3b:2e:e6:7e:ab:84:d6:56:f1:93:35:
                    a0:93:64:26:81:75:2f:91:b5:16:06:38:0b:db:cc:
                    2d:07
                Exponent: 65537 (0x10001)
        X509v3 extensions:
            X509v3 Key Usage: 
                Digital Signature, Key Encipherment
            X509v3 Basic Constraints: 
                CA:FALSE
            Netscape Cert Type: 
                SSL Server
            Netscape Comment: 
                OpenSSL Generated Server Certificate
            X509v3 Subject Key Identifier: 
                FC:14:D1:F0:4B:8D:00:90:F2:F5:B8:71:9E:4E:97:C3:92:54:AD:0B
            X509v3 Authority Key Identifier: 
                keyid:F4:A7:C0:CC:91:46:AF:64:F3:91:F2:27:F8:C8:B2:6F:8A:87:32:73
                DirName:/C=DE/ST=Hessen/O=privacyidea/CN=CA001
                serial:FB:C8:EB:AC:83:CD:12:07

            X509v3 Extended Key Usage: 
                TLS Web Server Authentication
    Signature Algorithm: sha256WithRSAEncryption
         4b:d1:36:7e:3f:f9:c5:f7:da:53:3c:58:d3:2b:07:78:8e:47:
         78:de:2b:43:1d:0f:e5:09:76:95:cf:36:93:e3:54:74:5b:1a:
         76:95:67:e1:65:38:23:10:bc:56:2c:76:d7:3f:20:5e:67:34:
         b1:25:34:c4:99:f9:f1:2f:b4:9f:a9:00:b2:b4:84:83:9d:7d:
         c1:f6:9f:70:67:20:4b:d2:b6:d0:8e:a1:f5:2b:b9:a7:cb:66:
         c5:01:d9:0b:7d:fa:0c:db:f5:5c:e7:3d:a3:e3:5a:af:e5:66:
         4b:80:62:34:58:1c:c0:8b:93:7d:be:f8:98:c8:fc:61:e6:30:
         26:1d:ef:7c:e0:34:eb:10:62:27:2e:b5:85:40:0b:cb:c1:cd:
         f2:68:e1:f7:77:63:c4:f4:a4:19:83:b0:ef:7a:b2:d9:7d:96:
         14:d6:d1:01:69:81:6c:42:c2:38:ff:48:9c:5e:3d:d6:90:d2:
         b6:8b:bb:a2:ff:b1:b6:da:23:b5:12:fa:68:d1:c8:b5:69:17:
         fe:fc:67:fb:8a:e7:6a:23:99:ac:32:38:02:e0:b1:9b:83:be:
         e3:ca:52:a9:49:62:0b:0a:18:93:4c:70:1b:cd:2c:f0:3f:7d:
         7d:fa:ac:23:3a:d8:b6:3a:e6:6d:b4:51:94:0a:be:1b:b8:ac:
         14:e5:bb:a2
-----BEGIN CERTIFICATE-----
MIIEGTCCAwGgAwIBAgIEEAAA2jANBgkqhkiG9w0BAQsFADBEMQswCQYDVQQGEwJE
RTEPMA0GA1UECAwGSGVzc2VuMRQwEgYDVQQKDAtwcml2YWN5aWRlYTEOMAwGA1UE
AwwFQ0EwMDEwHhcNMTcwMzAzMjAxOTA0WhcNMTgwMzAzMjAxOTA0WjBHMQswCQYD
VQQGEwJERTEPMA0GA1UECAwGSGVzc2VuMRQwEgYDVQQKDAtwcml2YWN5aWRlYTER
MA8GA1UEAwwIdXNlcmNlcnQwggEiMA0GCSqGSIb3DQEBAQUAA4IBDwAwggEKAoIB
AQDcL9FfKZfUfMNTyDC9S2dwLCRruF7rIXpIElZ8gVxIdbZo6/bymE5QUdF/bHPz
Cqeuvkhe5dbh2Sp8Mm5O/Qj2WlRJI3PDuQcY0e+zrPiK3JSWpJA6jnTf5g03G71b
tyUaVjnab5GqXhx08/l8FAGDEmV2x7v+NluV6XJlg+0+mDBx+ofdozZaMAMuJuBh
0b8CP7YGH0qJKBxcov9OvpTmjODagvGdKTJIMHO0BPZCHr734jIyJzydiS9wPoWa
b1zFCcCMMi9yIsnSlR+2rHJgcreCTWvOW+MA0NIvWMbgEOVRyk07LuZ+q4TWVvGT
NaCTZCaBdS+RtRYGOAvbzC0HAgMBAAGjggEOMIIBCjALBgNVHQ8EBAMCBaAwCQYD
VR0TBAIwADARBglghkgBhvhCAQEEBAMCBkAwMwYJYIZIAYb4QgENBCYWJE9wZW5T
U0wgR2VuZXJhdGVkIFNlcnZlciBDZXJ0aWZpY2F0ZTAdBgNVHQ4EFgQU/BTR8EuN
AJDy9bhxnk6Xw5JUrQswdAYDVR0jBG0wa4AU9KfAzJFGr2TzkfIn+Miyb4qHMnOh
SKRGMEQxCzAJBgNVBAYTAkRFMQ8wDQYDVQQIDAZIZXNzZW4xFDASBgNVBAoMC3By
aXZhY3lpZGVhMQ4wDAYDVQQDDAVDQTAwMYIJAPvI66yDzRIHMBMGA1UdJQQMMAoG
CCsGAQUFBwMBMA0GCSqGSIb3DQEBCwUAA4IBAQBL0TZ+P/nF99pTPFjTKwd4jkd4
3itDHQ/lCXaVzzaT41R0Wxp2lWfhZTgjELxWLHbXPyBeZzSxJTTEmfnxL7SfqQCy
tISDnX3B9p9wZyBL0rbQjqH1K7mny2bFAdkLffoM2/Vc5z2j41qv5WZLgGI0WBzA
i5N9vviYyPxh5jAmHe984DTrEGInLrWFQAvLwc3yaOH3d2PE9KQZg7DverLZfZYU
1tEBaYFsQsI4/0icXj3WkNK2i7ui/7G22iO1Evpo0ci1aRf+/Gf7iudqI5msMjgC
4LGbg77jylKpSWILChiTTHAbzSzwP319+qwjOti2OuZttFGUCr4buKwU5bui
-----END CERTIFICATE-----
