Certificate:
    Data:
        Version: 3 (0x2)
        Serial Number: 268435670 (0x100000d6)
    Signature Algorithm: sha256WithRSAEncryption
        Issuer: C=DE, ST=Hessen, O=privacyidea, CN=CA001
        Validity
            Not Before: Mar  3 17:57:08 2017 GMT
            Not After : Mar  3 17:57:08 2018 GMT
        Subject: OU=realm1, CN=cornelius/emailAddress=user@localhost.localdomain
        Subject Public Key Info:
            Public Key Algorithm: rsaEncryption
                Public-Key: (2048 bit)
                Modulus:
                    00:b5:45:b7:c5:88:c3:ae:06:6a:d6:ad:dc:8b:bd:
                    bf:c2:d0:5f:8c:fd:c8:38:42:42:10:5d:59:0c:d1:
                    f2:bd:5e:e7:a3:a9:c1:5d:3b:0a:f5:6b:13:ef:ca:
                    28:7d:ee:44:1a:6e:11:da:51:7e:9c:e5:d1:a6:db:
                    0b:b4:ef:6b:a1:79:f0:be:aa:10:b0:87:63:1b:de:
                    f8:43:9e:f4:d5:6a:d8:1f:d1:04:f2:b8:0f:32:0a:
                    a5:ac:4c:df:25:60:fb:5f:82:b5:be:81:5d:92:a0:
                    94:ca:94:f9:b2:65:a2:9c:e2:69:f6:e4:9f:a8:05:
                    77:71:82:f4:d6:5a:b2:0e:5b:00:e3:75:89:79:fe:
                    32:2a:75:fe:a6:3d:dc:ac:86:a1:af:66:0f:6b:b2:
                    79:4d:7e:6a:9e:50:ef:73:45:34:ab:35:5a:32:81:
                    5d:8a:6c:20:85:07:6b:cd:59:e9:25:96:1a:a0:a3:
                    8c:4b:b1:32:31:e8:aa:9c:c2:d1:22:2f:34:9a:70:
                    93:a8:03:75:5b:03:7f:29:cc:be:28:3f:87:dd:cf:
                    9d:4e:c4:c0:2d:d6:41:eb:79:c6:25:9d:05:48:1e:
                    10:08:3e:4c:14:4a:33:6c:29:b7:cb:1a:93:3f:12:
                    11:89:45:ff:07:e1:37:26:64:ae:7b:fa:3a:46:da:
                    f0:5b
                Exponent: 65537 (0x10001)
        X509v3 extensions:
            X509v3 Key Usage: 
                Digital Signature, Key Encipherment
            X509v3 Basic Constraints: 
                CA:FALSE
            Netscape Cert Type: 
                SSL Server
            Netscape Comment: 
                OpenSSL Generated Server Certificate
            X509v3 Subject Key Identifier: 
                0A:26:CD:08:BF:FA:01:F1:60:4E:B2:A8:2A:E6:70:E8:70:9A:47:3A
            X509v3 Authority Key Identifier: 
                keyid:F4:A7:C0:CC:91:46:AF:64:F3:91:F2:27:F8:C8:B2:6F:8A:87:32:73
                DirName:/C=DE/ST=Hessen/O=privacyidea/CN=CA001
                serial:FB:C8:EB:AC:83:CD:12:07

            X509v3 Extended Key Usage: 
                TLS Web Server Authentication
    Signature Algorithm: sha256WithRSAEncryption
         55:eb:9c:df:0e:17:48:dd:23:73:36:3e:ac:9b:ca:c3:99:6f:
         4b:39:2d:a5:a0:86:b2:57:2f:e7:2c:de:ca:3b:1c:e2:11:04:
         57:8d:8f:e7:2a:84:db:4b:da:11:70:30:5a:02:93:06:d9:fd:
         78:e0:b9:46:ce:01:0c:c8:b4:12:29:48:7b:e9:68:8d:a7:0a:
         f8:59:b1:84:7a:cf:e3:94:36:95:30:db:ea:9e:95:b4:a3:b7:
         d9:f6:11:b8:10:0e:53:2d:84:b5:10:d5:1f:d2:ad:ce:4d:fc:
         3c:0b:f3:bb:67:a0:c3:76:54:85:5c:10:8f:f2:e4:9a:d7:b7:
         cc:96:ed:af:f1:e5:8c:25:de:f8:0a:9a:a0:a7:12:c3:33:ee:
         e3:7e:cd:70:f0:08:d7:a4:57:ac:38:48:15:96:bd:ba:8b:02:
         8d:6f:69:06:ec:cf:95:77:30:8b:47:8e:d9:a2:cc:1e:e8:a1:
         f2:b0:1e:af:1e:05:4f:35:e0:03:37:de:f5:fb:d4:c3:74:b9:
         35:a8:4f:84:c4:e8:fe:ef:58:33:eb:d8:2d:91:84:37:41:96:
         0a:98:32:1d:b1:46:c1:0e:54:92:62:9d:a9:76:57:f5:54:f5:
         8d:5f:6c:cb:13:e2:81:5a:1b:70:c7:76:96:45:23:68:d3:dd:
         7b:f6:57:11
-----BEGIN CERTIFICATE-----
MIIEIjCCAwqgAwIBAgIEEAAA1jANBgkqhkiG9w0BAQsFADBEMQswCQYDVQQGEwJE
RTEPMA0GA1UECAwGSGVzc2VuMRQwEgYDVQQKDAtwcml2YWN5aWRlYTEOMAwGA1UE
AwwFQ0EwMDEwHhcNMTcwMzAzMTc1NzA4WhcNMTgwMzAzMTc1NzA4WjBQMQ8wDQYD
VQQLDAZyZWFsbTExEjAQBgNVBAMMCWNvcm5lbGl1czEpMCcGCSqGSIb3DQEJARYa
dXNlckBsb2NhbGhvc3QubG9jYWxkb21haW4wggEiMA0GCSqGSIb3DQEBAQUAA4IB
DwAwggEKAoIBAQC1RbfFiMOuBmrWrdyLvb/C0F+M/cg4QkIQXVkM0fK9XuejqcFd
Owr1axPvyih97kQabhHaUX6c5dGm2wu072uhefC+qhCwh2Mb3vhDnvTVatgf0QTy
uA8yCqWsTN8lYPtfgrW+gV2SoJTKlPmyZaKc4mn25J+oBXdxgvTWWrIOWwDjdYl5
/jIqdf6mPdyshqGvZg9rsnlNfmqeUO9zRTSrNVoygV2KbCCFB2vNWekllhqgo4xL
sTIx6KqcwtEiLzSacJOoA3VbA38pzL4oP4fdz51OxMAt1kHrecYlnQVIHhAIPkwU
SjNsKbfLGpM/EhGJRf8H4TcmZK57+jpG2vBbAgMBAAGjggEOMIIBCjALBgNVHQ8E
BAMCBaAwCQYDVR0TBAIwADARBglghkgBhvhCAQEEBAMCBkAwMwYJYIZIAYb4QgEN
BCYWJE9wZW5TU0wgR2VuZXJhdGVkIFNlcnZlciBDZXJ0aWZpY2F0ZTAdBgNVHQ4E
FgQUCibNCL/6AfFgTrKoKuZw6HCaRzowdAYDVR0jBG0wa4AU9KfAzJFGr2TzkfIn
+Miyb4qHMnOhSKRGMEQxCzAJBgNVBAYTAkRFMQ8wDQYDVQQIDAZIZXNzZW4xFDAS
BgNVBAoMC3ByaXZhY3lpZGVhMQ4wDAYDVQQDDAVDQTAwMYIJAPvI66yDzRIHMBMG
A1UdJQQMMAoGCCsGAQUFBwMBMA0GCSqGSIb3DQEBCwUAA4IBAQBV65zfDhdI3SNz
Nj6sm8rDmW9LOS2loIayVy/nLN7KOxziEQRXjY/nKoTbS9oRcDBaApMG2f144LlG
zgEMyLQSKUh76WiNpwr4WbGEes/jlDaVMNvqnpW0o7fZ9hG4EA5TLYS1ENUf0q3O
Tfw8C/O7Z6DDdlSFXBCP8uSa17fMlu2v8eWMJd74CpqgpxLDM+7jfs1w8AjXpFes
OEgVlr26iwKNb2kG7M+VdzCLR47Zoswe6KHysB6vHgVPNeADN971+9TDdLk1qE+E
xOj+71gz69gtkYQ3QZYKmDIdsUbBDlSSYp2pdlf1VPWNX2zLE+KBWhtwx3aWRSNo
09179lcR
-----END CERTIFICATE-----
