Certificate:
    Data:
        Version: 3 (0x2)
        Serial Number: 268435669 (0x100000d5)
    Signature Algorithm: sha256WithRSAEncryption
        Issuer: C=DE, ST=Hessen, O=privacyidea, CN=CA001
        Validity
            Not Before: Mar  3 17:57:07 2017 GMT
            Not After : Mar  3 17:57:07 2018 GMT
        Subject: C=DE, ST=Hessen, O=privacyidea, CN=requester.localdomain
        Subject Public Key Info:
            Public Key Algorithm: rsaEncryption
                Public-Key: (2048 bit)
                Modulus:
                    00:cd:be:14:4f:fa:ce:01:3f:42:22:1b:1d:9c:af:
                    dd:92:d2:7f:db:6c:b7:3e:39:43:43:6b:13:03:f1:
                    05:f4:07:74:bc:76:69:28:0b:af:19:8e:d7:fc:e3:
                    cd:c6:58:f2:ca:7f:08:6d:53:fc:07:02:44:24:c6:
                    b4:34:4c:8c:04:fe:33:0e:40:e2:20:ba:02:73:5a:
                    f7:f5:4f:63:6e:cc:c6:b6:df:54:1d:37:39:7d:51:
                    36:26:5f:bd:dc:3f:a8:8b:6b:a2:ae:b6:9d:d6:21:
                    e7:df:41:b8:7a:28:2a:68:48:ca:a8:2d:ed:e1:e9:
                    46:5e:5a:72:6d:b4:84:38:87:91:fd:94:11:0b:28:
                    84:c6:c2:2f:2a:fb:01:f9:36:7a:09:75:d1:33:88:
                    3c:73:41:5b:c8:bf:94:89:70:a1:f0:c0:b9:2e:50:
                    53:1e:b1:17:64:69:f4:2d:81:e0:a9:0d:0e:32:e9:
                    ba:55:8a:85:f1:1b:6f:49:79:b4:7f:88:c3:0d:3e:
                    54:88:9b:3d:1f:38:8c:04:f3:ee:6a:63:2b:f5:c6:
                    db:b4:83:aa:c4:78:41:3a:7d:4b:e1:c8:3e:71:ca:
                    1b:61:59:ea:c6:c4:ca:32:5e:c9:e9:bf:12:29:e6:
                    c6:c3:63:fe:a0:55:da:7a:f1:60:98:4d:26:ed:fa:
                    70:2d
                Exponent: 65537 (0x10001)
        X509v3 extensions:
            X509v3 Key Usage: 
                Digital Signature, Key Encipherment
            X509v3 Basic Constraints: 
                CA:FALSE
            Netscape Cert Type: 
                SSL Server
            Netscape Comment: 
                OpenSSL Generated Server Certificate
            X509v3 Subject Key Identifier: 
                53:3F:ED:5D:09:07:B3:65:7B:AB:45:C9:24:5B:09:77:80:0A:96:ED
            X509v3 Authority Key Identifier: 
                keyid:F4:A7:C0:CC:91:46:AF:64:F3:91:F2:27:F8:C8:B2:6F:8A:87:32:73
                DirName:/C=DE/ST=Hessen/O=privacyidea/CN=CA001
                serial:FB:C8:EB:AC:83:CD:12:07

            X509v3 Extended Key Usage: 
                TLS Web Server Authentication
    Signature Algorithm: sha256WithRSAEncryption
         85:01:71:16:46:d8:3a:d6:72:39:15:15:ed:23:91:6a:17:31:
         c2:b4:fd:ca:d1:b5:02:02:e0:f1:19:31:f0:c3:17:fe:e1:6d:
         89:ab:45:92:4e:24:58:84:c3:fd:d4:bf:e3:55:db:e0:e6:a0:
         0e:03:cd:5c:f5:55:87:b1:ed:b5:ee:a9:a4:7b:df:55:35:64:
         c1:d2:30:eb:92:bf:3c:8c:2f:a2:cf:6a:0a:d2:33:ee:ce:f3:
         b5:f2:45:7e:43:a1:3a:f5:1c:50:88:30:ed:4c:50:7b:b8:0d:
         6f:01:3a:c2:a1:40:86:72:67:f5:87:d7:c0:7b:d4:4f:a0:14:
         e4:20:c6:13:86:ce:1d:65:aa:31:f1:dd:99:a4:94:02:ef:05:
         b1:0e:32:30:f3:2e:53:07:29:fb:e6:f1:35:0c:32:46:5d:6f:
         ee:8b:dc:e4:71:3d:79:09:54:da:98:e7:dc:f8:93:bb:d1:ba:
         ac:e2:51:36:b8:af:8e:6d:b7:a0:3c:64:a8:b9:a3:09:8c:1b:
         de:83:7b:37:32:1f:d5:19:ff:1e:53:71:da:05:2e:ca:c2:af:
         fe:8b:3f:2c:2f:72:4c:3c:ef:bf:27:67:94:bb:ab:70:fc:6f:
         06:63:dd:0e:16:2e:4f:b4:bc:2a:58:6f:e5:14:23:e1:8c:87:
         fd:ed:03:d6
-----BEGIN CERTIFICATE-----
MIIEJjCCAw6gAwIBAgIEEAAA1TANBgkqhkiG9w0BAQsFADBEMQswCQYDVQQGEwJE
RTEPMA0GA1UECAwGSGVzc2VuMRQwEgYDVQQKDAtwcml2YWN5aWRlYTEOMAwGA1UE
AwwFQ0EwMDEwHhcNMTcwMzAzMTc1NzA3WhcNMTgwMzAzMTc1NzA3WjBUMQswCQYD
VQQGEwJERTEPMA0GA1UECAwGSGVzc2VuMRQwEgYDVQQKDAtwcml2YWN5aWRlYTEe
MBwGA1UEAwwVcmVxdWVzdGVyLmxvY2FsZG9tYWluMIIBIjANBgkqhkiG9w0BAQEF
AAOCAQ8AMIIBCgKCAQEAzb4UT/rOAT9CIhsdnK/dktJ/22y3PjlDQ2sTA/EF9Ad0
vHZpKAuvGY7X/OPNxljyyn8IbVP8BwJEJMa0NEyMBP4zDkDiILoCc1r39U9jbszG
tt9UHTc5fVE2Jl+93D+oi2uirrad1iHn30G4eigqaEjKqC3t4elGXlpybbSEOIeR
/ZQRCyiExsIvKvsB+TZ6CXXRM4g8c0FbyL+UiXCh8MC5LlBTHrEXZGn0LYHgqQ0O
Mum6VYqF8RtvSXm0f4jDDT5UiJs9HziMBPPuamMr9cbbtIOqxHhBOn1L4cg+ccob
YVnqxsTKMl7J6b8SKebGw2P+oFXaevFgmE0m7fpwLQIDAQABo4IBDjCCAQowCwYD
VR0PBAQDAgWgMAkGA1UdEwQCMAAwEQYJYIZIAYb4QgEBBAQDAgZAMDMGCWCGSAGG
+EIBDQQmFiRPcGVuU1NMIEdlbmVyYXRlZCBTZXJ2ZXIgQ2VydGlmaWNhdGUwHQYD
VR0OBBYEFFM/7V0JB7Nle6tFySRbCXeACpbtMHQGA1UdIwRtMGuAFPSnwMyRRq9k
85HyJ/jIsm+KhzJzoUikRjBEMQswCQYDVQQGEwJERTEPMA0GA1UECAwGSGVzc2Vu
MRQwEgYDVQQKDAtwcml2YWN5aWRlYTEOMAwGA1UEAwwFQ0EwMDGCCQD7yOusg80S
BzATBgNVHSUEDDAKBggrBgEFBQcDATANBgkqhkiG9w0BAQsFAAOCAQEAhQFxFkbY
OtZyORUV7SORahcxwrT9ytG1AgLg8Rkx8MMX/uFtiatFkk4kWITD/dS/41Xb4Oag
DgPNXPVVh7Htte6ppHvfVTVkwdIw65K/PIwvos9qCtIz7s7ztfJFfkOhOvUcUIgw
7UxQe7gNbwE6wqFAhnJn9YfXwHvUT6AU5CDGE4bOHWWqMfHdmaSUAu8FsQ4yMPMu
Uwcp++bxNQwyRl1v7ovc5HE9eQlU2pjn3PiTu9G6rOJRNrivjm23oDxkqLmjCYwb
3oN7NzIf1Rn/HlNx2gUuysKv/os/LC9yTDzvvydnlLurcPxvBmPdDhYuT7S8Klhv
5RQj4YyH/e0D1g==
-----END CERTIFICATE-----
