Certificate:
    Data:
        Version: 3 (0x2)
        Serial Number: 268435667 (0x100000d3)
    Signature Algorithm: sha256WithRSAEncryption
        Issuer: C=DE, ST=Hessen, O=privacyidea, CN=CA001
        Validity
            Not Before: Mar  3 17:53:35 2017 GMT
            Not After : Mar  3 17:53:35 2018 GMT
        Subject: CN=Steve Test/emailAddress=steve@openssl.org
        Subject Public Key Info:
            Public Key Algorithm: rsaEncryption
                Public-Key: (2048 bit)
                Modulus:
                    00:d2:81:89:20:51:48:0f:73:f4:11:32:24:d5:1f:
                    1c:fd:5c:f5:b6:e6:c5:f0:52:81:dc:d2:af:66:4a:
                    7c:93:31:61:5c:af:d1:6d:06:70:03:60:7c:72:0c:
                    88:dd:49:cd:9e:02:6c:d2:5a:d7:53:0f:f3:da:be:
                    69:64:b5:0f:0c:00:e3:b3:50:47:a3:b3:9b:ba:13:
                    50:d6:58:5a:4b:ab:39:e0:11:ca:0a:27:67:03:78:
                    22:66:6d:92:1e:1b:5c:49:ae:e6:6b:d1:8e:3b:9d:
                    06:d3:c6:ac:4d:53:43:10:ab:e8:96:c1:87:82:97:
                    99:8f:20:d3:99:12:37:31:84:e1:8a:ff:29:03:5f:
                    22:90:3e:7f:9b:e0:20:c1:ad:dc:ae:4c:39:1a:31:
                    96:17:02:8c:b2:d9:b4:0d:20:12:9b:7d:86:54:fd:
                    33:fd:c1:2a:62:46:f8:60:96:cf:6e:01:6f:22:df:
                    13:47:e7:97:ec:05:72:23:a3:62:f8:fa:ef:ac:9c:
                    72:f0:37:cb:2f:37:cf:90:a8:27:51:86:c6:d7:78:
                    08:8f:7e:25:a2:15:70:a2:fb:1c:b6:15:5e:a0:97:
                    8b:81:4c:09:28:8a:27:3b:94:bc:71:db:5b:71:37:
                    9a:2b:16:e0:6f:b5:c9:f5:4b:4f:20:ba:65:cf:af:
                    ad:ad
                Exponent: 65537 (0x10001)
        X509v3 extensions:
            X509v3 Key Usage: 
                Digital Signature, Key Encipherment
            X509v3 Basic Constraints: 
                CA:FALSE
            Netscape Cert Type: 
                SSL Server
            Netscape Comment: 
                OpenSSL Generated Server Certificate
            X509v3 Subject Key Identifier: 
                E5:25:6D:3E:AF:0D:DD:3F:4C:F2:45:19:39:D5:14:DB:7E:9C:C0:AD
            X509v3 Authority Key Identifier: 
                keyid:F4:A7:C0:CC:91:46:AF:64:F3:91:F2:27:F8:C8:B2:6F:8A:87:32:73
                DirName:/C=DE/ST=Hessen/O=privacyidea/CN=CA001
                serial:FB:C8:EB:AC:83:CD:12:07

            X509v3 Extended Key Usage: 
                TLS Web Server Authentication
    Signature Algorithm: sha256WithRSAEncryption
         76:a4:33:95:7e:47:0c:63:c3:b9:01:a0:10:ba:23:9d:a1:6a:
         03:32:67:03:37:8f:9b:87:4a:92:9d:32:fa:b4:1d:a6:d7:29:
         c4:3c:08:3e:c5:f1:b6:aa:76:a4:ca:46:35:28:62:bd:29:33:
         6e:b1:39:53:dd:0c:f2:0e:6e:01:b6:8b:8a:2d:42:d9:3d:32:
         dd:9d:65:a1:34:18:98:75:6f:c6:51:5d:d7:c0:27:4f:a6:55:
         2f:0a:b6:12:20:d1:75:68:0c:93:1b:e1:70:65:7d:a4:4b:73:
         4e:6f:89:10:fa:ef:ed:12:f0:9a:3c:a6:e0:03:37:f8:2a:d4:
         f9:e4:bd:90:07:eb:8d:4e:13:f9:f0:77:76:48:0c:80:ae:ea:
         a9:e4:03:6c:f1:3a:f1:f7:86:f0:4f:f7:15:9f:7f:0e:9e:3c:
         42:ce:9e:8d:bb:9d:a6:e4:c7:b9:bf:60:ce:81:cb:ee:ce:d5:
         19:79:6b:c7:e9:f3:53:c3:32:4b:6a:f7:74:a6:7a:5e:9b:a4:
         6f:06:af:36:0a:5b:fc:ba:4d:7a:a0:3a:d9:11:09:61:92:2d:
         00:62:95:45:bf:95:4c:db:2d:4b:e4:79:ed:ce:4a:ae:1f:cc:
         aa:8e:81:c3:34:cb:66:36:6d:e3:ea:87:45:bf:93:ae:67:c0:
         32:e7:87:be
-----BEGIN CERTIFICATE-----
MIIECTCCAvGgAwIBAgIEEAAA0zANBgkqhkiG9w0BAQsFADBEMQswCQYDVQQGEwJE
RTEPMA0GA1UECAwGSGVzc2VuMRQwEgYDVQQKDAtwcml2YWN5aWRlYTEOMAwGA1UE
AwwFQ0EwMDEwHhcNMTcwMzAzMTc1MzM1WhcNMTgwMzAzMTc1MzM1WjA3MRMwEQYD
VQQDDApTdGV2ZSBUZXN0MSAwHgYJKoZIhvcNAQkBFhFzdGV2ZUBvcGVuc3NsLm9y
ZzCCASIwDQYJKoZIhvcNAQEBBQADggEPADCCAQoCggEBANKBiSBRSA9z9BEyJNUf
HP1c9bbmxfBSgdzSr2ZKfJMxYVyv0W0GcANgfHIMiN1JzZ4CbNJa11MP89q+aWS1
DwwA47NQR6Ozm7oTUNZYWkurOeARygonZwN4ImZtkh4bXEmu5mvRjjudBtPGrE1T
QxCr6JbBh4KXmY8g05kSNzGE4Yr/KQNfIpA+f5vgIMGt3K5MORoxlhcCjLLZtA0g
Ept9hlT9M/3BKmJG+GCWz24BbyLfE0fnl+wFciOjYvj676yccvA3yy83z5CoJ1GG
xtd4CI9+JaIVcKL7HLYVXqCXi4FMCSiKJzuUvHHbW3E3misW4G+1yfVLTyC6Zc+v
ra0CAwEAAaOCAQ4wggEKMAsGA1UdDwQEAwIFoDAJBgNVHRMEAjAAMBEGCWCGSAGG
+EIBAQQEAwIGQDAzBglghkgBhvhCAQ0EJhYkT3BlblNTTCBHZW5lcmF0ZWQgU2Vy
dmVyIENlcnRpZmljYXRlMB0GA1UdDgQWBBTlJW0+rw3dP0zyRRk51RTbfpzArTB0
BgNVHSMEbTBrgBT0p8DMkUavZPOR8if4yLJviocyc6FIpEYwRDELMAkGA1UEBhMC
REUxDzANBgNVBAgMBkhlc3NlbjEUMBIGA1UECgwLcHJpdmFjeWlkZWExDjAMBgNV
BAMMBUNBMDAxggkA+8jrrIPNEgcwEwYDVR0lBAwwCgYIKwYBBQUHAwEwDQYJKoZI
hvcNAQELBQADggEBAHakM5V+Rwxjw7kBoBC6I52hagMyZwM3j5uHSpKdMvq0HabX
KcQ8CD7F8baqdqTKRjUoYr0pM26xOVPdDPIObgG2i4otQtk9Mt2dZaE0GJh1b8ZR
XdfAJ0+mVS8KthIg0XVoDJMb4XBlfaRLc05viRD67+0S8Jo8puADN/gq1PnkvZAH
641OE/nwd3ZIDICu6qnkA2zxOvH3hvBP9xWffw6ePELOno27nabkx7m/YM6By+7O
1Rl5a8fp81PDMktq93Smel6bpG8GrzYKW/y6TXqgOtkRCWGSLQBilUW/lUzbLUvk
ee3OSq4fzKqOgcM0y2Y2bePqh0W/k65nwDLnh74=
-----END CERTIFICATE-----
