Certificate:
    Data:
        Version: 3 (0x2)
        Serial Number: 268435664 (0x100000d0)
    Signature Algorithm: sha256WithRSAEncryption
        Issuer: C=DE, ST=Hessen, O=privacyidea, CN=CA001
        Validity
            Not Before: Mar  3 17:52:04 2017 GMT
            Not After : Mar  3 17:52:04 2018 GMT
        Subject: C=DE, ST=Hessen, O=privacyidea, CN=requester.localdomain
        Subject Public Key Info:
            Public Key Algorithm: rsaEncryption
                Public-Key: (2048 bit)
                Modulus:
                    00:cd:be:14:4f:fa:ce:01:3f:42:22:1b:1d:9c:af:
                    dd:92:d2:7f:db:6c:b7:3e:39:43:43:6b:13:03:f1:
                    05:f4:07:74:bc:76:69:28:0b:af:19:8e:d7:fc:e3:
                    cd:c6:58:f2:ca:7f:08:6d:53:fc:07:02:44:24:c6:
                    b4:34:4c:8c:04:fe:33:0e:40:e2:20:ba:02:73:5a:
                    f7:f5:4f:63:6e:cc:c6:b6:df:54:1d:37:39:7d:51:
                    36:26:5f:bd:dc:3f:a8:8b:6b:a2:ae:b6:9d:d6:21:
                    e7:df:41:b8:7a:28:2a:68:48:ca:a8:2d:ed:e1:e9:
                    46:5e:5a:72:6d:b4:84:38:87:91:fd:94:11:0b:28:
                    84:c6:c2:2f:2a:fb:01:f9:36:7a:09:75:d1:33:88:
                    3c:73:41:5b:c8:bf:94:89:70:a1:f0:c0:b9:2e:50:
                    53:1e:b1:17:64:69:f4:2d:81:e0:a9:0d:0e:32:e9:
                    ba:55:8a:85:f1:1b:6f:49:79:b4:7f:88:c3:0d:3e:
                    54:88:9b:3d:1f:38:8c:04:f3:ee:6a:63:2b:f5:c6:
                    db:b4:83:aa:c4:78:41:3a:7d:4b:e1:c8:3e:71:ca:
                    1b:61:59:ea:c6:c4:ca:32:5e:c9:e9:bf:12:29:e6:
                    c6:c3:63:fe:a0:55:da:7a:f1:60:98:4d:26:ed:fa:
                    70:2d
                Exponent: 65537 (0x10001)
        X509v3 extensions:
            X509v3 Key Usage: 
                Digital Signature, Key Encipherment
            X509v3 Basic Constraints: 
                CA:FALSE
            Netscape Cert Type: 
                SSL Server
            Netscape Comment: 
                OpenSSL Generated Server Certificate
            X509v3 Subject Key Identifier: 
                53:3F:ED:5D:09:07:B3:65:7B:AB:45:C9:24:5B:09:77:80:0A:96:ED
            X509v3 Authority Key Identifier: 
                keyid:F4:A7:C0:CC:91:46:AF:64:F3:91:F2:27:F8:C8:B2:6F:8A:87:32:73
                DirName:/C=DE/ST=Hessen/O=privacyidea/CN=CA001
                serial:FB:C8:EB:AC:83:CD:12:07

            X509v3 Extended Key Usage: 
                TLS Web Server Authentication
    Signature Algorithm: sha256WithRSAEncryption
         0a:71:25:0b:64:44:11:79:0f:3e:df:e0:3c:56:73:8b:43:f7:
         e1:f7:50:3f:be:b9:20:7b:db:a0:c3:00:fa:b5:c3:ca:1e:ac:
         84:77:63:53:7e:9b:93:33:9a:b3:60:d2:9a:0c:99:b9:fe:fd:
         11:b6:10:61:e4:75:e3:50:85:98:2d:d6:2e:15:77:6c:05:9c:
         ce:b2:ac:07:13:6c:79:d4:b5:c2:b8:3b:3f:d0:b2:47:31:46:
         9b:b5:d1:ef:ba:fe:e7:a9:27:7e:9e:fc:42:3d:58:47:b9:1d:
         2f:9f:90:75:d8:a6:63:7c:20:22:11:d3:3a:fc:21:ec:0c:24:
         f4:ef:27:8e:01:02:d3:9d:37:a5:f2:6d:27:64:35:7b:04:11:
         a8:f9:b1:24:a6:79:e2:bf:21:3b:15:f4:96:03:f9:84:70:13:
         ba:29:7f:cd:0e:8b:f7:84:1c:cb:08:e3:ef:3f:6b:0d:1c:d3:
         53:1a:b4:bd:08:85:9a:ba:a8:d5:eb:4a:f8:c1:84:6a:e2:b7:
         bf:45:d3:0f:0c:a1:c8:e0:ea:f3:98:52:0c:93:23:d2:00:8f:
         8a:cc:3c:83:42:2a:39:4b:be:53:58:3a:43:37:22:d6:01:f6:
         8b:4a:a2:dc:40:01:9e:00:49:a0:98:4f:27:9b:b2:ad:48:a6:
         d6:d7:e5:e6
-----BEGIN CERTIFICATE-----
MIIEJjCCAw6gAwIBAgIEEAAA0DANBgkqhkiG9w0BAQsFADBEMQswCQYDVQQGEwJE
RTEPMA0GA1UECAwGSGVzc2VuMRQwEgYDVQQKDAtwcml2YWN5aWRlYTEOMAwGA1UE
AwwFQ0EwMDEwHhcNMTcwMzAzMTc1MjA0WhcNMTgwMzAzMTc1MjA0WjBUMQswCQYD
VQQGEwJERTEPMA0GA1UECAwGSGVzc2VuMRQwEgYDVQQKDAtwcml2YWN5aWRlYTEe
MBwGA1UEAwwVcmVxdWVzdGVyLmxvY2FsZG9tYWluMIIBIjANBgkqhkiG9w0BAQEF
AAOCAQ8AMIIBCgKCAQEAzb4UT/rOAT9CIhsdnK/dktJ/22y3PjlDQ2sTA/EF9Ad0
vHZpKAuvGY7X/OPNxljyyn8IbVP8BwJEJMa0NEyMBP4zDkDiILoCc1r39U9jbszG
tt9UHTc5fVE2Jl+93D+oi2uirrad1iHn30G4eigqaEjKqC3t4elGXlpybbSEOIeR
/ZQRCyiExsIvKvsB+TZ6CXXRM4g8c0FbyL+UiXCh8MC5LlBTHrEXZGn0LYHgqQ0O
Mum6VYqF8RtvSXm0f4jDDT5UiJs9HziMBPPuamMr9cbbtIOqxHhBOn1L4cg+ccob
YVnqxsTKMl7J6b8SKebGw2P+oFXaevFgmE0m7fpwLQIDAQABo4IBDjCCAQowCwYD
VR0PBAQDAgWgMAkGA1UdEwQCMAAwEQYJYIZIAYb4QgEBBAQDAgZAMDMGCWCGSAGG
+EIBDQQmFiRPcGVuU1NMIEdlbmVyYXRlZCBTZXJ2ZXIgQ2VydGlmaWNhdGUwHQYD
VR0OBBYEFFM/7V0JB7Nle6tFySRbCXeACpbtMHQGA1UdIwRtMGuAFPSnwMyRRq9k
85HyJ/jIsm+KhzJzoUikRjBEMQswCQYDVQQGEwJERTEPMA0GA1UECAwGSGVzc2Vu
MRQwEgYDVQQKDAtwcml2YWN5aWRlYTEOMAwGA1UEAwwFQ0EwMDGCCQD7yOusg80S
BzATBgNVHSUEDDAKBggrBgEFBQcDATANBgkqhkiG9w0BAQsFAAOCAQEACnElC2RE
EXkPPt/gPFZzi0P34fdQP765IHvboMMA+rXDyh6shHdjU36bkzOas2DSmgyZuf79
EbYQYeR141CFmC3WLhV3bAWczrKsBxNsedS1wrg7P9CyRzFGm7XR77r+56knfp78
Qj1YR7kdL5+QddimY3wgIhHTOvwh7Awk9O8njgEC0503pfJtJ2Q1ewQRqPmxJKZ5
4r8hOxX0lgP5hHATuil/zQ6L94Qcywjj7z9rDRzTUxq0vQiFmrqo1etK+MGEauK3
v0XTDwyhyODq85hSDJMj0gCPisw8g0IqOUu+U1g6Qzci1gH2i0qi3EABngBJoJhP
J5uyrUim1tfl5g==
-----END CERTIFICATE-----
