Certificate:
    Data:
        Version: 3 (0x2)
        Serial Number: 268435668 (0x100000d4)
    Signature Algorithm: sha256WithRSAEncryption
        Issuer: C=DE, ST=Hessen, O=privacyidea, CN=CA001
        Validity
            Not Before: Mar  3 17:53:35 2017 GMT
            Not After : Mar 23 17:53:35 2019 GMT
        Subject: CN=Steve Test/emailAddress=steve@openssl.org
        Subject Public Key Info:
            Public Key Algorithm: rsaEncryption
                Public-Key: (2048 bit)
                Modulus:
                    00:d2:81:89:20:51:48:0f:73:f4:11:32:24:d5:1f:
                    1c:fd:5c:f5:b6:e6:c5:f0:52:81:dc:d2:af:66:4a:
                    7c:93:31:61:5c:af:d1:6d:06:70:03:60:7c:72:0c:
                    88:dd:49:cd:9e:02:6c:d2:5a:d7:53:0f:f3:da:be:
                    69:64:b5:0f:0c:00:e3:b3:50:47:a3:b3:9b:ba:13:
                    50:d6:58:5a:4b:ab:39:e0:11:ca:0a:27:67:03:78:
                    22:66:6d:92:1e:1b:5c:49:ae:e6:6b:d1:8e:3b:9d:
                    06:d3:c6:ac:4d:53:43:10:ab:e8:96:c1:87:82:97:
                    99:8f:20:d3:99:12:37:31:84:e1:8a:ff:29:03:5f:
                    22:90:3e:7f:9b:e0:20:c1:ad:dc:ae:4c:39:1a:31:
                    96:17:02:8c:b2:d9:b4:0d:20:12:9b:7d:86:54:fd:
                    33:fd:c1:2a:62:46:f8:60:96:cf:6e:01:6f:22:df:
                    13:47:e7:97:ec:05:72:23:a3:62:f8:fa:ef:ac:9c:
                    72:f0:37:cb:2f:37:cf:90:a8:27:51:86:c6:d7:78:
                    08:8f:7e:25:a2:15:70:a2:fb:1c:b6:15:5e:a0:97:
                    8b:81:4c:09:28:8a:27:3b:94:bc:71:db:5b:71:37:
                    9a:2b:16:e0:6f:b5:c9:f5:4b:4f:20:ba:65:cf:af:
                    ad:ad
                Exponent: 65537 (0x10001)
        X509v3 extensions:
            X509v3 Key Usage: 
                Digital Signature, Key Encipherment
            X509v3 Basic Constraints: 
                CA:FALSE
            Netscape Cert Type: 
                SSL Server
            Netscape Comment: 
                OpenSSL Generated Server Certificate
            X509v3 Subject Key Identifier: 
                E5:25:6D:3E:AF:0D:DD:3F:4C:F2:45:19:39:D5:14:DB:7E:9C:C0:AD
            X509v3 Authority Key Identifier: 
                keyid:F4:A7:C0:CC:91:46:AF:64:F3:91:F2:27:F8:C8:B2:6F:8A:87:32:73
                DirName:/C=DE/ST=Hessen/O=privacyidea/CN=CA001
                serial:FB:C8:EB:AC:83:CD:12:07

            X509v3 Extended Key Usage: 
                TLS Web Server Authentication
    Signature Algorithm: sha256WithRSAEncryption
         19:15:59:d2:3d:bf:eb:b2:a9:2d:c9:42:4c:b2:71:60:b7:2e:
         dd:45:d7:5a:0a:ce:ce:f5:2c:df:9c:fc:7b:45:a9:9d:29:37:
         7c:64:e1:f5:3d:63:bd:2d:34:62:ee:c6:dc:46:ac:c9:30:59:
         fe:26:58:65:42:4f:b5:2a:8b:4a:5b:76:a7:2c:1d:61:b7:d7:
         66:44:25:79:84:15:96:ff:80:62:04:a1:d3:b1:c8:82:1c:3f:
         71:58:cb:33:0f:fe:28:87:fa:11:9e:32:9a:b3:d1:ad:af:f9:
         5d:05:21:19:ca:b7:0b:a8:75:e9:46:78:7e:e9:3d:d3:4d:97:
         b8:67:d6:19:a9:bf:94:b0:aa:4d:c5:53:0d:55:9d:00:5b:e4:
         a5:95:83:a4:25:91:3c:a4:9d:f3:7a:1e:c8:05:03:ab:5a:b0:
         24:b0:df:31:77:ff:49:68:72:17:23:de:ab:c1:1d:20:49:1c:
         cd:a8:5e:04:4f:d4:3a:86:3a:e2:be:56:69:6c:76:df:17:ac:
         08:b9:55:61:13:91:bd:98:7e:67:d5:19:f4:cd:6e:cd:fb:ab:
         6d:02:47:63:a6:50:2c:54:81:4a:73:af:0e:c0:fe:0b:12:51:
         16:3e:3c:32:c1:d8:59:bf:56:02:0a:9f:fa:89:8a:48:33:e0:
         d7:cd:42:fd
-----BEGIN CERTIFICATE-----
MIIECTCCAvGgAwIBAgIEEAAA1DANBgkqhkiG9w0BAQsFADBEMQswCQYDVQQGEwJE
RTEPMA0GA1UECAwGSGVzc2VuMRQwEgYDVQQKDAtwcml2YWN5aWRlYTEOMAwGA1UE
AwwFQ0EwMDEwHhcNMTcwMzAzMTc1MzM1WhcNMTkwMzIzMTc1MzM1WjA3MRMwEQYD
VQQDDApTdGV2ZSBUZXN0MSAwHgYJKoZIhvcNAQkBFhFzdGV2ZUBvcGVuc3NsLm9y
ZzCCASIwDQYJKoZIhvcNAQEBBQADggEPADCCAQoCggEBANKBiSBRSA9z9BEyJNUf
HP1c9bbmxfBSgdzSr2ZKfJMxYVyv0W0GcANgfHIMiN1JzZ4CbNJa11MP89q+aWS1
DwwA47NQR6Ozm7oTUNZYWkurOeARygonZwN4ImZtkh4bXEmu5mvRjjudBtPGrE1T
QxCr6JbBh4KXmY8g05kSNzGE4Yr/KQNfIpA+f5vgIMGt3K5MORoxlhcCjLLZtA0g
Ept9hlT9M/3BKmJG+GCWz24BbyLfE0fnl+wFciOjYvj676yccvA3yy83z5CoJ1GG
xtd4CI9+JaIVcKL7HLYVXqCXi4FMCSiKJzuUvHHbW3E3misW4G+1yfVLTyC6Zc+v
ra0CAwEAAaOCAQ4wggEKMAsGA1UdDwQEAwIFoDAJBgNVHRMEAjAAMBEGCWCGSAGG
+EIBAQQEAwIGQDAzBglghkgBhvhCAQ0EJhYkT3BlblNTTCBHZW5lcmF0ZWQgU2Vy
dmVyIENlcnRpZmljYXRlMB0GA1UdDgQWBBTlJW0+rw3dP0zyRRk51RTbfpzArTB0
BgNVHSMEbTBrgBT0p8DMkUavZPOR8if4yLJviocyc6FIpEYwRDELMAkGA1UEBhMC
REUxDzANBgNVBAgMBkhlc3NlbjEUMBIGA1UECgwLcHJpdmFjeWlkZWExDjAMBgNV
BAMMBUNBMDAxggkA+8jrrIPNEgcwEwYDVR0lBAwwCgYIKwYBBQUHAwEwDQYJKoZI
hvcNAQELBQADggEBABkVWdI9v+uyqS3JQkyycWC3Lt1F11oKzs71LN+c/HtFqZ0p
N3xk4fU9Y70tNGLuxtxGrMkwWf4mWGVCT7Uqi0pbdqcsHWG312ZEJXmEFZb/gGIE
odOxyIIcP3FYyzMP/iiH+hGeMpqz0a2v+V0FIRnKtwuodelGeH7pPdNNl7hn1hmp
v5Swqk3FUw1VnQBb5KWVg6QlkTyknfN6HsgFA6tasCSw3zF3/0lochcj3qvBHSBJ
HM2oXgRP1DqGOuK+Vmlsdt8XrAi5VWETkb2YfmfVGfTNbs37q20CR2OmUCxUgUpz
rw7A/gsSURY+PDLB2Fm/VgIKn/qJikgz4NfNQv0=
-----END CERTIFICATE-----
